0x62fd50
c256int.exe:     file format pei-x86-64


Disassembly of section .text:

0000000000401000 <__mingw_invalidParameterHandler>:
  401000:	c3                   	retq   
  401001:	66 66 66 66 66 66 2e 	data16 data16 data16 data16 data16 nopw %cs:0x0(%rax,%rax,1)
  401008:	0f 1f 84 00 00 00 00 
  40100f:	00 

0000000000401010 <pre_c_init>:
  401010:	48 83 ec 28          	sub    $0x28,%rsp
  401014:	48 8b 05 75 34 00 00 	mov    0x3475(%rip),%rax        # 404490 <.refptr.mingw_initltsdrot_force>
  40101b:	31 d2                	xor    %edx,%edx
  40101d:	c7 00 01 00 00 00    	movl   $0x1,(%rax)
  401023:	48 8b 05 76 34 00 00 	mov    0x3476(%rip),%rax        # 4044a0 <.refptr.mingw_initltsdyn_force>
  40102a:	c7 00 01 00 00 00    	movl   $0x1,(%rax)
  401030:	48 8b 05 79 34 00 00 	mov    0x3479(%rip),%rax        # 4044b0 <.refptr.mingw_initltssuo_force>
  401037:	c7 00 01 00 00 00    	movl   $0x1,(%rax)
  40103d:	48 8b 05 3c 34 00 00 	mov    0x343c(%rip),%rax        # 404480 <.refptr.mingw_initcharmax>
  401044:	c7 00 01 00 00 00    	movl   $0x1,(%rax)
  40104a:	48 8b 05 ef 32 00 00 	mov    0x32ef(%rip),%rax        # 404340 <.refptr.__image_base__>
  401051:	66 81 38 4d 5a       	cmpw   $0x5a4d,(%rax)
  401056:	74 78                	je     4010d0 <pre_c_init+0xc0>
  401058:	48 8b 05 11 34 00 00 	mov    0x3411(%rip),%rax        # 404470 <.refptr.mingw_app_type>
  40105f:	89 15 a3 5f 00 00    	mov    %edx,0x5fa3(%rip)        # 407008 <managedapp>
  401065:	8b 00                	mov    (%rax),%eax
  401067:	85 c0                	test   %eax,%eax
  401069:	74 57                	je     4010c2 <pre_c_init+0xb2>
  40106b:	b9 02 00 00 00       	mov    $0x2,%ecx
  401070:	e8 a3 1d 00 00       	callq  402e18 <__set_app_type>
  401075:	48 c7 c1 ff ff ff ff 	mov    $0xffffffffffffffff,%rcx
  40107c:	e8 7f 08 00 00       	callq  401900 <_encode_pointer>
  401081:	48 8b 15 48 33 00 00 	mov    0x3348(%rip),%rdx        # 4043d0 <.refptr.__onexitend>
  401088:	48 89 02             	mov    %rax,(%rdx)
  40108b:	48 8b 15 2e 33 00 00 	mov    0x332e(%rip),%rdx        # 4043c0 <.refptr.__onexitbegin>
  401092:	48 89 02             	mov    %rax,(%rdx)
  401095:	48 8b 05 94 33 00 00 	mov    0x3394(%rip),%rax        # 404430 <.refptr._fmode>
  40109c:	8b 10                	mov    (%rax),%edx
  40109e:	48 8b 05 cb 32 00 00 	mov    0x32cb(%rip),%rax        # 404370 <.refptr.__imp__fmode>
  4010a5:	48 8b 00             	mov    (%rax),%rax
  4010a8:	89 10                	mov    %edx,(%rax)
  4010aa:	e8 61 08 00 00       	callq  401910 <_setargv>
  4010af:	48 8b 05 3a 32 00 00 	mov    0x323a(%rip),%rax        # 4042f0 <.refptr._MINGW_INSTALL_DEBUG_MATHERR>
  4010b6:	83 38 01             	cmpl   $0x1,(%rax)
  4010b9:	74 65                	je     401120 <pre_c_init+0x110>
  4010bb:	31 c0                	xor    %eax,%eax
  4010bd:	48 83 c4 28          	add    $0x28,%rsp
  4010c1:	c3                   	retq   
  4010c2:	b9 01 00 00 00       	mov    $0x1,%ecx
  4010c7:	e8 4c 1d 00 00       	callq  402e18 <__set_app_type>
  4010cc:	eb a7                	jmp    401075 <pre_c_init+0x65>
  4010ce:	66 90                	xchg   %ax,%ax
  4010d0:	48 63 48 3c          	movslq 0x3c(%rax),%rcx
  4010d4:	48 01 c8             	add    %rcx,%rax
  4010d7:	81 38 50 45 00 00    	cmpl   $0x4550,(%rax)
  4010dd:	0f 85 75 ff ff ff    	jne    401058 <pre_c_init+0x48>
  4010e3:	0f b7 48 18          	movzwl 0x18(%rax),%ecx
  4010e7:	66 81 f9 0b 01       	cmp    $0x10b,%cx
  4010ec:	74 45                	je     401133 <pre_c_init+0x123>
  4010ee:	66 81 f9 0b 02       	cmp    $0x20b,%cx
  4010f3:	0f 85 5f ff ff ff    	jne    401058 <pre_c_init+0x48>
  4010f9:	83 b8 84 00 00 00 0e 	cmpl   $0xe,0x84(%rax)
  401100:	0f 86 52 ff ff ff    	jbe    401058 <pre_c_init+0x48>
  401106:	8b 88 f8 00 00 00    	mov    0xf8(%rax),%ecx
  40110c:	31 d2                	xor    %edx,%edx
  40110e:	85 c9                	test   %ecx,%ecx
  401110:	0f 95 c2             	setne  %dl
  401113:	e9 40 ff ff ff       	jmpq   401058 <pre_c_init+0x48>
  401118:	0f 1f 84 00 00 00 00 	nopl   0x0(%rax,%rax,1)
  40111f:	00 
  401120:	48 8d 0d 59 08 00 00 	lea    0x859(%rip),%rcx        # 401980 <_matherr>
  401127:	e8 44 08 00 00       	callq  401970 <__mingw_setusermatherr>
  40112c:	31 c0                	xor    %eax,%eax
  40112e:	48 83 c4 28          	add    $0x28,%rsp
  401132:	c3                   	retq   
  401133:	83 78 74 0e          	cmpl   $0xe,0x74(%rax)
  401137:	0f 86 1b ff ff ff    	jbe    401058 <pre_c_init+0x48>
  40113d:	44 8b 80 e8 00 00 00 	mov    0xe8(%rax),%r8d
  401144:	31 d2                	xor    %edx,%edx
  401146:	45 85 c0             	test   %r8d,%r8d
  401149:	0f 95 c2             	setne  %dl
  40114c:	e9 07 ff ff ff       	jmpq   401058 <pre_c_init+0x48>
  401151:	66 66 66 66 66 66 2e 	data16 data16 data16 data16 data16 nopw %cs:0x0(%rax,%rax,1)
  401158:	0f 1f 84 00 00 00 00 
  40115f:	00 

0000000000401160 <pre_cpp_init>:
  401160:	48 83 ec 38          	sub    $0x38,%rsp
  401164:	48 8b 05 f5 32 00 00 	mov    0x32f5(%rip),%rax        # 404460 <.refptr._newmode>
  40116b:	4c 8d 05 a6 5e 00 00 	lea    0x5ea6(%rip),%r8        # 407018 <envp>
  401172:	48 8d 15 a7 5e 00 00 	lea    0x5ea7(%rip),%rdx        # 407020 <argv>
  401179:	48 8d 0d a8 5e 00 00 	lea    0x5ea8(%rip),%rcx        # 407028 <argc>
  401180:	8b 00                	mov    (%rax),%eax
  401182:	89 05 78 5e 00 00    	mov    %eax,0x5e78(%rip)        # 407000 <__bss_start__>
  401188:	48 8d 05 71 5e 00 00 	lea    0x5e71(%rip),%rax        # 407000 <__bss_start__>
  40118f:	48 89 44 24 20       	mov    %rax,0x20(%rsp)
  401194:	48 8b 05 85 32 00 00 	mov    0x3285(%rip),%rax        # 404420 <.refptr._dowildcard>
  40119b:	44 8b 08             	mov    (%rax),%r9d
  40119e:	e8 7d 1c 00 00       	callq  402e20 <__getmainargs>
  4011a3:	89 05 67 5e 00 00    	mov    %eax,0x5e67(%rip)        # 407010 <argret>
  4011a9:	48 83 c4 38          	add    $0x38,%rsp
  4011ad:	c3                   	retq   
  4011ae:	66 90                	xchg   %ax,%ax

00000000004011b0 <__tmainCRTStartup>:
  4011b0:	41 55                	push   %r13
  4011b2:	41 54                	push   %r12
  4011b4:	55                   	push   %rbp
  4011b5:	57                   	push   %rdi
  4011b6:	56                   	push   %rsi
  4011b7:	53                   	push   %rbx
  4011b8:	48 81 ec 98 00 00 00 	sub    $0x98,%rsp
  4011bf:	48 8b 2d aa 32 00 00 	mov    0x32aa(%rip),%rbp        # 404470 <.refptr.mingw_app_type>
  4011c6:	31 c0                	xor    %eax,%eax
  4011c8:	b9 0d 00 00 00       	mov    $0xd,%ecx
  4011cd:	48 8d 54 24 20       	lea    0x20(%rsp),%rdx
  4011d2:	44 8b 4d 00          	mov    0x0(%rbp),%r9d
  4011d6:	48 89 d7             	mov    %rdx,%rdi
  4011d9:	f3 48 ab             	rep stos %rax,%es:(%rdi)
  4011dc:	45 85 c9             	test   %r9d,%r9d
  4011df:	0f 85 ab 02 00 00    	jne    401490 <__tmainCRTStartup+0x2e0>
  4011e5:	65 48 8b 04 25 30 00 	mov    %gs:0x30,%rax
  4011ec:	00 00 
  4011ee:	48 8b 1d ab 31 00 00 	mov    0x31ab(%rip),%rbx        # 4043a0 <.refptr.__native_startup_lock>
  4011f5:	48 8b 70 08          	mov    0x8(%rax),%rsi
  4011f9:	31 ff                	xor    %edi,%edi
  4011fb:	4c 8b 25 82 70 00 00 	mov    0x7082(%rip),%r12        # 408284 <__imp_Sleep>
  401202:	eb 11                	jmp    401215 <__tmainCRTStartup+0x65>
  401204:	48 39 c6             	cmp    %rax,%rsi
  401207:	0f 84 23 02 00 00    	je     401430 <__tmainCRTStartup+0x280>
  40120d:	b9 e8 03 00 00       	mov    $0x3e8,%ecx
  401212:	41 ff d4             	callq  *%r12
  401215:	48 89 f8             	mov    %rdi,%rax
  401218:	f0 48 0f b1 33       	lock cmpxchg %rsi,(%rbx)
  40121d:	48 85 c0             	test   %rax,%rax
  401220:	75 e2                	jne    401204 <__tmainCRTStartup+0x54>
  401222:	48 8b 35 87 31 00 00 	mov    0x3187(%rip),%rsi        # 4043b0 <.refptr.__native_startup_state>
  401229:	31 ff                	xor    %edi,%edi
  40122b:	8b 06                	mov    (%rsi),%eax
  40122d:	83 f8 01             	cmp    $0x1,%eax
  401230:	0f 84 11 02 00 00    	je     401447 <__tmainCRTStartup+0x297>
  401236:	8b 06                	mov    (%rsi),%eax
  401238:	85 c0                	test   %eax,%eax
  40123a:	0f 84 60 02 00 00    	je     4014a0 <__tmainCRTStartup+0x2f0>
  401240:	c7 05 ba 5d 00 00 01 	movl   $0x1,0x5dba(%rip)        # 407004 <has_cctor>
  401247:	00 00 00 
  40124a:	8b 06                	mov    (%rsi),%eax
  40124c:	83 f8 01             	cmp    $0x1,%eax
  40124f:	0f 84 07 02 00 00    	je     40145c <__tmainCRTStartup+0x2ac>
  401255:	85 ff                	test   %edi,%edi
  401257:	0f 84 23 02 00 00    	je     401480 <__tmainCRTStartup+0x2d0>
  40125d:	48 8b 05 cc 30 00 00 	mov    0x30cc(%rip),%rax        # 404330 <.refptr.__dyn_tls_init_callback>
  401264:	48 8b 00             	mov    (%rax),%rax
  401267:	48 85 c0             	test   %rax,%rax
  40126a:	74 0c                	je     401278 <__tmainCRTStartup+0xc8>
  40126c:	45 31 c0             	xor    %r8d,%r8d
  40126f:	ba 02 00 00 00       	mov    $0x2,%edx
  401274:	31 c9                	xor    %ecx,%ecx
  401276:	ff d0                	callq  *%rax
  401278:	e8 e3 09 00 00       	callq  401c60 <_pei386_runtime_relocator>
  40127d:	48 8d 0d 7c 0f 00 00 	lea    0xf7c(%rip),%rcx        # 402200 <_gnu_exception_handler>
  401284:	ff 15 f2 6f 00 00    	callq  *0x6ff2(%rip)        # 40827c <__imp_SetUnhandledExceptionFilter>
  40128a:	48 8b 15 ff 30 00 00 	mov    0x30ff(%rip),%rdx        # 404390 <.refptr.__mingw_oldexcpt_handler>
  401291:	48 89 02             	mov    %rax,(%rdx)
  401294:	e8 77 0e 00 00       	callq  402110 <__mingw_init_ehandler>
  401299:	48 8d 0d 60 fd ff ff 	lea    -0x2a0(%rip),%rcx        # 401000 <__mingw_invalidParameterHandler>
  4012a0:	e8 9b 1b 00 00       	callq  402e40 <_set_invalid_parameter_handler>
  4012a5:	e8 16 11 00 00       	callq  4023c0 <_fpreset>
  4012aa:	48 8b 05 8f 30 00 00 	mov    0x308f(%rip),%rax        # 404340 <.refptr.__image_base__>
  4012b1:	48 89 05 60 67 00 00 	mov    %rax,0x6760(%rip)        # 407a18 <__mingw_winmain_hInstance>
  4012b8:	48 8b 05 a1 30 00 00 	mov    0x30a1(%rip),%rax        # 404360 <.refptr.__imp__acmdln>
  4012bf:	48 8b 00             	mov    (%rax),%rax
  4012c2:	48 8b 00             	mov    (%rax),%rax
  4012c5:	48 85 c0             	test   %rax,%rax
  4012c8:	74 4d                	je     401317 <__tmainCRTStartup+0x167>
  4012ca:	31 c9                	xor    %ecx,%ecx
  4012cc:	eb 14                	jmp    4012e2 <__tmainCRTStartup+0x132>
  4012ce:	66 90                	xchg   %ax,%ax
  4012d0:	84 d2                	test   %dl,%dl
  4012d2:	74 3c                	je     401310 <__tmainCRTStartup+0x160>
  4012d4:	83 e1 01             	and    $0x1,%ecx
  4012d7:	74 2b                	je     401304 <__tmainCRTStartup+0x154>
  4012d9:	b9 01 00 00 00       	mov    $0x1,%ecx
  4012de:	48 83 c0 01          	add    $0x1,%rax
  4012e2:	0f b6 10             	movzbl (%rax),%edx
  4012e5:	80 fa 20             	cmp    $0x20,%dl
  4012e8:	7e e6                	jle    4012d0 <__tmainCRTStartup+0x120>
  4012ea:	41 89 c8             	mov    %ecx,%r8d
  4012ed:	41 83 f0 01          	xor    $0x1,%r8d
  4012f1:	80 fa 22             	cmp    $0x22,%dl
  4012f4:	41 0f 44 c8          	cmove  %r8d,%ecx
  4012f8:	eb e4                	jmp    4012de <__tmainCRTStartup+0x12e>
  4012fa:	66 0f 1f 44 00 00    	nopw   0x0(%rax,%rax,1)
  401300:	84 d2                	test   %dl,%dl
  401302:	74 0c                	je     401310 <__tmainCRTStartup+0x160>
  401304:	48 83 c0 01          	add    $0x1,%rax
  401308:	0f b6 10             	movzbl (%rax),%edx
  40130b:	80 fa 20             	cmp    $0x20,%dl
  40130e:	7e f0                	jle    401300 <__tmainCRTStartup+0x150>
  401310:	48 89 05 f9 66 00 00 	mov    %rax,0x66f9(%rip)        # 407a10 <__mingw_winmain_lpCmdLine>
  401317:	44 8b 45 00          	mov    0x0(%rbp),%r8d
  40131b:	45 85 c0             	test   %r8d,%r8d
  40131e:	74 16                	je     401336 <__tmainCRTStartup+0x186>
  401320:	f6 44 24 5c 01       	testb  $0x1,0x5c(%rsp)
  401325:	b8 0a 00 00 00       	mov    $0xa,%eax
  40132a:	0f 85 f1 00 00 00    	jne    401421 <__tmainCRTStartup+0x271>
  401330:	89 05 ca 1c 00 00    	mov    %eax,0x1cca(%rip)        # 403000 <__data_start__>
  401336:	44 8b 25 eb 5c 00 00 	mov    0x5ceb(%rip),%r12d        # 407028 <argc>
  40133d:	45 8d 6c 24 01       	lea    0x1(%r12),%r13d
  401342:	4d 63 ed             	movslq %r13d,%r13
  401345:	49 c1 e5 03          	shl    $0x3,%r13
  401349:	4c 89 e9             	mov    %r13,%rcx
  40134c:	e8 ff 1a 00 00       	callq  402e50 <malloc>
  401351:	45 85 e4             	test   %r12d,%r12d
  401354:	48 89 c5             	mov    %rax,%rbp
  401357:	48 8b 3d c2 5c 00 00 	mov    0x5cc2(%rip),%rdi        # 407020 <argv>
  40135e:	0f 8e 5a 01 00 00    	jle    4014be <__tmainCRTStartup+0x30e>
  401364:	31 db                	xor    %ebx,%ebx
  401366:	66 2e 0f 1f 84 00 00 	nopw   %cs:0x0(%rax,%rax,1)
  40136d:	00 00 00 
  401370:	48 8b 0c df          	mov    (%rdi,%rbx,8),%rcx
  401374:	e8 df 1a 00 00       	callq  402e58 <strlen>
  401379:	48 8d 70 01          	lea    0x1(%rax),%rsi
  40137d:	48 89 f1             	mov    %rsi,%rcx
  401380:	e8 cb 1a 00 00       	callq  402e50 <malloc>
  401385:	48 89 44 dd 00       	mov    %rax,0x0(%rbp,%rbx,8)
  40138a:	48 8b 14 df          	mov    (%rdi,%rbx,8),%rdx
  40138e:	48 89 c1             	mov    %rax,%rcx
  401391:	49 89 f0             	mov    %rsi,%r8
  401394:	48 83 c3 01          	add    $0x1,%rbx
  401398:	e8 c3 1a 00 00       	callq  402e60 <memcpy>
  40139d:	41 39 dc             	cmp    %ebx,%r12d
  4013a0:	7f ce                	jg     401370 <__tmainCRTStartup+0x1c0>
  4013a2:	49 83 ed 08          	sub    $0x8,%r13
  4013a6:	4a c7 44 2d 00 00 00 	movq   $0x0,0x0(%rbp,%r13,1)
  4013ad:	00 00 
  4013af:	48 89 2d 6a 5c 00 00 	mov    %rbp,0x5c6a(%rip)        # 407020 <argv>
  4013b6:	e8 b5 10 00 00       	callq  402470 <__main>
  4013bb:	48 8b 05 8e 2f 00 00 	mov    0x2f8e(%rip),%rax        # 404350 <.refptr.__imp___initenv>
  4013c2:	48 8b 15 4f 5c 00 00 	mov    0x5c4f(%rip),%rdx        # 407018 <envp>
  4013c9:	8b 0d 59 5c 00 00    	mov    0x5c59(%rip),%ecx        # 407028 <argc>
  4013cf:	48 8b 00             	mov    (%rax),%rax
  4013d2:	48 89 10             	mov    %rdx,(%rax)
  4013d5:	4c 8b 05 3c 5c 00 00 	mov    0x5c3c(%rip),%r8        # 407018 <envp>
  4013dc:	48 8b 15 3d 5c 00 00 	mov    0x5c3d(%rip),%rdx        # 407020 <argv>
  4013e3:	e8 48 01 00 00       	callq  401530 <main>
  4013e8:	8b 0d 1a 5c 00 00    	mov    0x5c1a(%rip),%ecx        # 407008 <managedapp>
  4013ee:	89 05 18 5c 00 00    	mov    %eax,0x5c18(%rip)        # 40700c <mainret>
  4013f4:	85 c9                	test   %ecx,%ecx
  4013f6:	0f 84 ca 00 00 00    	je     4014c6 <__tmainCRTStartup+0x316>
  4013fc:	8b 15 02 5c 00 00    	mov    0x5c02(%rip),%edx        # 407004 <has_cctor>
  401402:	85 d2                	test   %edx,%edx
  401404:	75 0b                	jne    401411 <__tmainCRTStartup+0x261>
  401406:	e8 5d 1a 00 00       	callq  402e68 <_cexit>
  40140b:	8b 05 fb 5b 00 00    	mov    0x5bfb(%rip),%eax        # 40700c <mainret>
  401411:	48 81 c4 98 00 00 00 	add    $0x98,%rsp
  401418:	5b                   	pop    %rbx
  401419:	5e                   	pop    %rsi
  40141a:	5f                   	pop    %rdi
  40141b:	5d                   	pop    %rbp
  40141c:	41 5c                	pop    %r12
  40141e:	41 5d                	pop    %r13
  401420:	c3                   	retq   
  401421:	0f b7 44 24 60       	movzwl 0x60(%rsp),%eax
  401426:	e9 05 ff ff ff       	jmpq   401330 <__tmainCRTStartup+0x180>
  40142b:	0f 1f 44 00 00       	nopl   0x0(%rax,%rax,1)
  401430:	48 8b 35 79 2f 00 00 	mov    0x2f79(%rip),%rsi        # 4043b0 <.refptr.__native_startup_state>
  401437:	bf 01 00 00 00       	mov    $0x1,%edi
  40143c:	8b 06                	mov    (%rsi),%eax
  40143e:	83 f8 01             	cmp    $0x1,%eax
  401441:	0f 85 ef fd ff ff    	jne    401236 <__tmainCRTStartup+0x86>
  401447:	b9 1f 00 00 00       	mov    $0x1f,%ecx
  40144c:	e8 1f 1a 00 00       	callq  402e70 <_amsg_exit>
  401451:	8b 06                	mov    (%rsi),%eax
  401453:	83 f8 01             	cmp    $0x1,%eax
  401456:	0f 85 f9 fd ff ff    	jne    401255 <__tmainCRTStartup+0xa5>
  40145c:	48 8b 15 8d 2f 00 00 	mov    0x2f8d(%rip),%rdx        # 4043f0 <.refptr.__xc_z>
  401463:	48 8b 0d 76 2f 00 00 	mov    0x2f76(%rip),%rcx        # 4043e0 <.refptr.__xc_a>
  40146a:	e8 09 1a 00 00       	callq  402e78 <_initterm>
  40146f:	85 ff                	test   %edi,%edi
  401471:	c7 06 02 00 00 00    	movl   $0x2,(%rsi)
  401477:	0f 85 e0 fd ff ff    	jne    40125d <__tmainCRTStartup+0xad>
  40147d:	0f 1f 00             	nopl   (%rax)
  401480:	31 c0                	xor    %eax,%eax
  401482:	48 87 03             	xchg   %rax,(%rbx)
  401485:	e9 d3 fd ff ff       	jmpq   40125d <__tmainCRTStartup+0xad>
  40148a:	66 0f 1f 44 00 00    	nopw   0x0(%rax,%rax,1)
  401490:	48 89 d1             	mov    %rdx,%rcx
  401493:	ff 15 93 6d 00 00    	callq  *0x6d93(%rip)        # 40822c <__imp_GetStartupInfoA>
  401499:	e9 47 fd ff ff       	jmpq   4011e5 <__tmainCRTStartup+0x35>
  40149e:	66 90                	xchg   %ax,%ax
  4014a0:	48 8b 15 69 2f 00 00 	mov    0x2f69(%rip),%rdx        # 404410 <.refptr.__xi_z>
  4014a7:	48 8b 0d 52 2f 00 00 	mov    0x2f52(%rip),%rcx        # 404400 <.refptr.__xi_a>
  4014ae:	c7 06 01 00 00 00    	movl   $0x1,(%rsi)
  4014b4:	e8 bf 19 00 00       	callq  402e78 <_initterm>
  4014b9:	e9 8c fd ff ff       	jmpq   40124a <__tmainCRTStartup+0x9a>
  4014be:	45 31 ed             	xor    %r13d,%r13d
  4014c1:	e9 e0 fe ff ff       	jmpq   4013a6 <__tmainCRTStartup+0x1f6>
  4014c6:	89 c1                	mov    %eax,%ecx
  4014c8:	e8 b3 19 00 00       	callq  402e80 <exit>
  4014cd:	90                   	nop
  4014ce:	66 90                	xchg   %ax,%ax

00000000004014d0 <WinMainCRTStartup>:
  4014d0:	48 83 ec 28          	sub    $0x28,%rsp

00000000004014d4 <.l_startw>:
  4014d4:	48 8b 05 95 2f 00 00 	mov    0x2f95(%rip),%rax        # 404470 <.refptr.mingw_app_type>
  4014db:	c7 00 01 00 00 00    	movl   $0x1,(%rax)
  4014e1:	e8 aa 0f 00 00       	callq  402490 <__security_init_cookie>
  4014e6:	e8 c5 fc ff ff       	callq  4011b0 <__tmainCRTStartup>
  4014eb:	90                   	nop

00000000004014ec <.l_endw>:
  4014ec:	90                   	nop
  4014ed:	48 83 c4 28          	add    $0x28,%rsp
  4014f1:	c3                   	retq   
  4014f2:	66 66 66 66 66 2e 0f 	data16 data16 data16 data16 nopw %cs:0x0(%rax,%rax,1)
  4014f9:	1f 84 00 00 00 00 00 

0000000000401500 <mainCRTStartup>:
  401500:	48 83 ec 28          	sub    $0x28,%rsp

0000000000401504 <.l_start>:
  401504:	48 8b 05 65 2f 00 00 	mov    0x2f65(%rip),%rax        # 404470 <.refptr.mingw_app_type>
  40150b:	c7 00 00 00 00 00    	movl   $0x0,(%rax)
  401511:	e8 7a 0f 00 00       	callq  402490 <__security_init_cookie>
  401516:	e8 95 fc ff ff       	callq  4011b0 <__tmainCRTStartup>
  40151b:	90                   	nop

000000000040151c <.l_end>:
  40151c:	90                   	nop
  40151d:	48 83 c4 28          	add    $0x28,%rsp
  401521:	c3                   	retq   
  401522:	90                   	nop
  401523:	90                   	nop
  401524:	90                   	nop
  401525:	90                   	nop
  401526:	90                   	nop
  401527:	90                   	nop
  401528:	90                   	nop
  401529:	90                   	nop
  40152a:	90                   	nop
  40152b:	90                   	nop
  40152c:	90                   	nop
  40152d:	90                   	nop
  40152e:	90                   	nop
  40152f:	90                   	nop

0000000000401530 <main>:

c256int* processbin(char* arr);
c256int* sumit(c256int* num1, c256int* num2);
void prettyprint(c256int* num);
int main()
{
  401530:	55                   	push   %rbp
  401531:	48 89 e5             	mov    %rsp,%rbp
  401534:	48 81 ec 90 00 00 00 	sub    $0x90,%rsp
  40153b:	e8 30 0f 00 00       	callq  402470 <__main>
	c256int* mynum1;
	c256int* mynum2;

	char binproc[80];
	printf("Enter first number: ");
  401540:	48 8d 0d b9 2a 00 00 	lea    0x2ab9(%rip),%rcx        # 404000 <.rdata>
  401547:	e8 3c 19 00 00       	callq  402e88 <printf>
	scanf("%s",binproc);
  40154c:	48 8d 45 90          	lea    -0x70(%rbp),%rax
  401550:	48 89 c2             	mov    %rax,%rdx
  401553:	48 8d 0d bb 2a 00 00 	lea    0x2abb(%rip),%rcx        # 404015 <.rdata+0x15>
  40155a:	e8 31 19 00 00       	callq  402e90 <scanf>
	mynum1 = processbin(binproc);
  40155f:	48 8d 45 90          	lea    -0x70(%rbp),%rax
  401563:	48 89 c1             	mov    %rax,%rcx
  401566:	e8 21 02 00 00       	callq  40178c <processbin>
  40156b:	48 89 45 f8          	mov    %rax,-0x8(%rbp)
	printf("\nsuccess\n"); //as seen by gdb
  40156f:	48 8d 0d a2 2a 00 00 	lea    0x2aa2(%rip),%rcx        # 404018 <.rdata+0x18>
  401576:	e8 1d 19 00 00       	callq  402e98 <puts>
	printf("Enter second number: ");
  40157b:	48 8d 0d 9f 2a 00 00 	lea    0x2a9f(%rip),%rcx        # 404021 <.rdata+0x21>
  401582:	e8 01 19 00 00       	callq  402e88 <printf>
	scanf("%s",binproc);
  401587:	48 8d 45 90          	lea    -0x70(%rbp),%rax
  40158b:	48 89 c2             	mov    %rax,%rdx
  40158e:	48 8d 0d 80 2a 00 00 	lea    0x2a80(%rip),%rcx        # 404015 <.rdata+0x15>
  401595:	e8 f6 18 00 00       	callq  402e90 <scanf>
	mynum2 = processbin(binproc);
  40159a:	48 8d 45 90          	lea    -0x70(%rbp),%rax
  40159e:	48 89 c1             	mov    %rax,%rcx
  4015a1:	e8 e6 01 00 00       	callq  40178c <processbin>
  4015a6:	48 89 45 f0          	mov    %rax,-0x10(%rbp)
	printf("\nsuccess\n"); //as seen by gdb
  4015aa:	48 8d 0d 67 2a 00 00 	lea    0x2a67(%rip),%rcx        # 404018 <.rdata+0x18>
  4015b1:	e8 e2 18 00 00       	callq  402e98 <puts>
	c256int* thesum = sumit(mynum1, mynum2);//overflow notified
  4015b6:	48 8b 55 f0          	mov    -0x10(%rbp),%rdx
  4015ba:	48 8b 45 f8          	mov    -0x8(%rbp),%rax
  4015be:	48 89 c1             	mov    %rax,%rcx
  4015c1:	e8 1e 00 00 00       	callq  4015e4 <sumit>
  4015c6:	48 89 45 e8          	mov    %rax,-0x18(%rbp)
	//The computed sum has been stored in variable
	//use gdb
	prettyprint(thesum);
  4015ca:	48 8b 45 e8          	mov    -0x18(%rbp),%rax
  4015ce:	48 89 c1             	mov    %rax,%rcx
  4015d1:	e8 c8 02 00 00       	callq  40189e <prettyprint>
	return 0;
  4015d6:	b8 00 00 00 00       	mov    $0x0,%eax
}
  4015db:	48 81 c4 90 00 00 00 	add    $0x90,%rsp
  4015e2:	5d                   	pop    %rbp
  4015e3:	c3                   	retq   

00000000004015e4 <sumit>:

c256int* sumit(c256int* num1, c256int* num2){//verified
  4015e4:	55                   	push   %rbp
  4015e5:	48 89 e5             	mov    %rsp,%rbp
  4015e8:	48 83 ec 50          	sub    $0x50,%rsp
  4015ec:	48 89 4d 10          	mov    %rcx,0x10(%rbp)
  4015f0:	48 89 55 18          	mov    %rdx,0x18(%rbp)
	c256int ptans;
	c256int* ans = &ptans;
  4015f4:	48 8d 45 d0          	lea    -0x30(%rbp),%rax
  4015f8:	48 89 45 f0          	mov    %rax,-0x10(%rbp)
	unsigned int extr = 0;
  4015fc:	c7 45 fc 00 00 00 00 	movl   $0x0,-0x4(%rbp)
	int i;
	for(i=31;i>=0;i--){
  401603:	c7 45 f8 1f 00 00 00 	movl   $0x1f,-0x8(%rbp)
  40160a:	eb 7c                	jmp    401688 <sumit+0xa4>
		*(ans->num+i)=*(num1->num+i)+*(num2->num+i)+((unsigned char)extr);
  40160c:	8b 45 f8             	mov    -0x8(%rbp),%eax
  40160f:	48 98                	cltq   
  401611:	8b 55 f8             	mov    -0x8(%rbp),%edx
  401614:	48 63 d2             	movslq %edx,%rdx
  401617:	48 8b 4d 10          	mov    0x10(%rbp),%rcx
  40161b:	44 0f b6 04 11       	movzbl (%rcx,%rdx,1),%r8d
  401620:	8b 55 f8             	mov    -0x8(%rbp),%edx
  401623:	48 63 d2             	movslq %edx,%rdx
  401626:	48 8b 4d 18          	mov    0x18(%rbp),%rcx
  40162a:	0f b6 14 11          	movzbl (%rcx,%rdx,1),%edx
  40162e:	41 8d 0c 10          	lea    (%r8,%rdx,1),%ecx
  401632:	8b 55 fc             	mov    -0x4(%rbp),%edx
  401635:	01 d1                	add    %edx,%ecx
  401637:	48 8b 55 f0          	mov    -0x10(%rbp),%rdx
  40163b:	88 0c 02             	mov    %cl,(%rdx,%rax,1)
		extr = (((unsigned int) *(num1->num+i))+((unsigned int)*(num2->num+i))+((unsigned char)extr)-*(ans->num+i))/256;
  40163e:	8b 45 f8             	mov    -0x8(%rbp),%eax
  401641:	48 98                	cltq   
  401643:	48 8b 55 10          	mov    0x10(%rbp),%rdx
  401647:	0f b6 04 02          	movzbl (%rdx,%rax,1),%eax
  40164b:	0f b6 c8             	movzbl %al,%ecx
  40164e:	8b 45 f8             	mov    -0x8(%rbp),%eax
  401651:	48 98                	cltq   
  401653:	48 8b 55 18          	mov    0x18(%rbp),%rdx
  401657:	0f b6 04 02          	movzbl (%rdx,%rax,1),%eax
  40165b:	0f b6 c0             	movzbl %al,%eax
  40165e:	8d 14 01             	lea    (%rcx,%rax,1),%edx
  401661:	8b 45 fc             	mov    -0x4(%rbp),%eax
  401664:	0f b6 c0             	movzbl %al,%eax
  401667:	8d 0c 02             	lea    (%rdx,%rax,1),%ecx
  40166a:	8b 45 f8             	mov    -0x8(%rbp),%eax
  40166d:	48 98                	cltq   
  40166f:	48 8b 55 f0          	mov    -0x10(%rbp),%rdx
  401673:	0f b6 04 02          	movzbl (%rdx,%rax,1),%eax
  401677:	0f b6 c0             	movzbl %al,%eax
  40167a:	29 c1                	sub    %eax,%ecx
  40167c:	89 c8                	mov    %ecx,%eax
  40167e:	c1 e8 08             	shr    $0x8,%eax
  401681:	89 45 fc             	mov    %eax,-0x4(%rbp)
c256int* sumit(c256int* num1, c256int* num2){//verified
	c256int ptans;
	c256int* ans = &ptans;
	unsigned int extr = 0;
	int i;
	for(i=31;i>=0;i--){
  401684:	83 6d f8 01          	subl   $0x1,-0x8(%rbp)
  401688:	83 7d f8 00          	cmpl   $0x0,-0x8(%rbp)
  40168c:	0f 89 7a ff ff ff    	jns    40160c <sumit+0x28>
		*(ans->num+i)=*(num1->num+i)+*(num2->num+i)+((unsigned char)extr);
		extr = (((unsigned int) *(num1->num+i))+((unsigned int)*(num2->num+i))+((unsigned char)extr)-*(ans->num+i))/256;
	}
	if(extr>0){printf("Overflow detected\n");}
  401692:	83 7d fc 00          	cmpl   $0x0,-0x4(%rbp)
  401696:	74 0c                	je     4016a4 <sumit+0xc0>
  401698:	48 8d 0d 98 29 00 00 	lea    0x2998(%rip),%rcx        # 404037 <.rdata+0x37>
  40169f:	e8 f4 17 00 00       	callq  402e98 <puts>
	return ans;
  4016a4:	48 8b 45 f0          	mov    -0x10(%rbp),%rax
}
  4016a8:	48 83 c4 50          	add    $0x50,%rsp
  4016ac:	5d                   	pop    %rbp
  4016ad:	c3                   	retq   

00000000004016ae <update>:

update(char* arr, int i){
  4016ae:	55                   	push   %rbp
  4016af:	48 89 e5             	mov    %rsp,%rbp
  4016b2:	48 83 ec 10          	sub    $0x10,%rsp
  4016b6:	48 89 4d 10          	mov    %rcx,0x10(%rbp)
  4016ba:	89 55 18             	mov    %edx,0x18(%rbp)
	int buff=0;
  4016bd:	c7 45 fc 00 00 00 00 	movl   $0x0,-0x4(%rbp)
	int j;
	for(j=0;j<i;j++){
  4016c4:	c7 45 f8 00 00 00 00 	movl   $0x0,-0x8(%rbp)
  4016cb:	e9 aa 00 00 00       	jmpq   40177a <update+0xcc>
		arr[j]-='0';
  4016d0:	8b 45 f8             	mov    -0x8(%rbp),%eax
  4016d3:	48 63 d0             	movslq %eax,%rdx
  4016d6:	48 8b 45 10          	mov    0x10(%rbp),%rax
  4016da:	48 01 d0             	add    %rdx,%rax
  4016dd:	8b 55 f8             	mov    -0x8(%rbp),%edx
  4016e0:	48 63 ca             	movslq %edx,%rcx
  4016e3:	48 8b 55 10          	mov    0x10(%rbp),%rdx
  4016e7:	48 01 ca             	add    %rcx,%rdx
  4016ea:	0f b6 12             	movzbl (%rdx),%edx
  4016ed:	83 ea 30             	sub    $0x30,%edx
  4016f0:	88 10                	mov    %dl,(%rax)
		arr[j]+=buff;
  4016f2:	8b 45 f8             	mov    -0x8(%rbp),%eax
  4016f5:	48 63 d0             	movslq %eax,%rdx
  4016f8:	48 8b 45 10          	mov    0x10(%rbp),%rax
  4016fc:	48 01 d0             	add    %rdx,%rax
  4016ff:	8b 55 f8             	mov    -0x8(%rbp),%edx
  401702:	48 63 ca             	movslq %edx,%rcx
  401705:	48 8b 55 10          	mov    0x10(%rbp),%rdx
  401709:	48 01 ca             	add    %rcx,%rdx
  40170c:	0f b6 12             	movzbl (%rdx),%edx
  40170f:	89 d1                	mov    %edx,%ecx
  401711:	8b 55 fc             	mov    -0x4(%rbp),%edx
  401714:	01 ca                	add    %ecx,%edx
  401716:	88 10                	mov    %dl,(%rax)
		if(arr[j]%2==1){
  401718:	8b 45 f8             	mov    -0x8(%rbp),%eax
  40171b:	48 63 d0             	movslq %eax,%rdx
  40171e:	48 8b 45 10          	mov    0x10(%rbp),%rax
  401722:	48 01 d0             	add    %rdx,%rax
  401725:	0f b6 00             	movzbl (%rax),%eax
  401728:	89 c2                	mov    %eax,%edx
  40172a:	c0 fa 07             	sar    $0x7,%dl
  40172d:	c0 ea 07             	shr    $0x7,%dl
  401730:	01 d0                	add    %edx,%eax
  401732:	83 e0 01             	and    $0x1,%eax
  401735:	29 d0                	sub    %edx,%eax
  401737:	3c 01                	cmp    $0x1,%al
  401739:	75 09                	jne    401744 <update+0x96>
			buff=10;
  40173b:	c7 45 fc 0a 00 00 00 	movl   $0xa,-0x4(%rbp)
  401742:	eb 07                	jmp    40174b <update+0x9d>
		}
		else{
			buff=0;
  401744:	c7 45 fc 00 00 00 00 	movl   $0x0,-0x4(%rbp)
		}
		arr[j]=arr[j]/2+'0';
  40174b:	8b 45 f8             	mov    -0x8(%rbp),%eax
  40174e:	48 63 d0             	movslq %eax,%rdx
  401751:	48 8b 45 10          	mov    0x10(%rbp),%rax
  401755:	48 01 c2             	add    %rax,%rdx
  401758:	8b 45 f8             	mov    -0x8(%rbp),%eax
  40175b:	48 63 c8             	movslq %eax,%rcx
  40175e:	48 8b 45 10          	mov    0x10(%rbp),%rax
  401762:	48 01 c8             	add    %rcx,%rax
  401765:	0f b6 00             	movzbl (%rax),%eax
  401768:	89 c1                	mov    %eax,%ecx
  40176a:	c0 e9 07             	shr    $0x7,%cl
  40176d:	01 c8                	add    %ecx,%eax
  40176f:	d0 f8                	sar    %al
  401771:	83 c0 30             	add    $0x30,%eax
  401774:	88 02                	mov    %al,(%rdx)
}

update(char* arr, int i){
	int buff=0;
	int j;
	for(j=0;j<i;j++){
  401776:	83 45 f8 01          	addl   $0x1,-0x8(%rbp)
  40177a:	8b 45 f8             	mov    -0x8(%rbp),%eax
  40177d:	3b 45 18             	cmp    0x18(%rbp),%eax
  401780:	0f 8c 4a ff ff ff    	jl     4016d0 <update+0x22>
		else{
			buff=0;
		}
		arr[j]=arr[j]/2+'0';
	}
}
  401786:	48 83 c4 10          	add    $0x10,%rsp
  40178a:	5d                   	pop    %rbp
  40178b:	c3                   	retq   

000000000040178c <processbin>:

c256int* processbin(char* arr){
  40178c:	55                   	push   %rbp
  40178d:	48 89 e5             	mov    %rsp,%rbp
  401790:	48 83 ec 40          	sub    $0x40,%rsp
  401794:	48 89 4d 10          	mov    %rcx,0x10(%rbp)
	//get length
	int i,j,k,oof;
	for(i=0; i<79; i++){
  401798:	c7 45 fc 00 00 00 00 	movl   $0x0,-0x4(%rbp)
  40179f:	eb 1a                	jmp    4017bb <processbin+0x2f>
		if(*(arr+i)=='\0'){
  4017a1:	8b 45 fc             	mov    -0x4(%rbp),%eax
  4017a4:	48 63 d0             	movslq %eax,%rdx
  4017a7:	48 8b 45 10          	mov    0x10(%rbp),%rax
  4017ab:	48 01 d0             	add    %rdx,%rax
  4017ae:	0f b6 00             	movzbl (%rax),%eax
  4017b1:	84 c0                	test   %al,%al
  4017b3:	75 02                	jne    4017b7 <processbin+0x2b>
			break;
  4017b5:	eb 0a                	jmp    4017c1 <processbin+0x35>
}

c256int* processbin(char* arr){
	//get length
	int i,j,k,oof;
	for(i=0; i<79; i++){
  4017b7:	83 45 fc 01          	addl   $0x1,-0x4(%rbp)
  4017bb:	83 7d fc 4e          	cmpl   $0x4e,-0x4(%rbp)
  4017bf:	7e e0                	jle    4017a1 <processbin+0x15>
		if(*(arr+i)=='\0'){
			break;
		}
	}
	c256int* newnum = malloc(256*8);
  4017c1:	b9 00 08 00 00       	mov    $0x800,%ecx
  4017c6:	e8 85 16 00 00       	callq  402e50 <malloc>
  4017cb:	48 89 45 e8          	mov    %rax,-0x18(%rbp)
	for(j=0; j<32; j++){*(newnum->num+j)=0;}
  4017cf:	c7 45 f8 00 00 00 00 	movl   $0x0,-0x8(%rbp)
  4017d6:	eb 11                	jmp    4017e9 <processbin+0x5d>
  4017d8:	8b 45 f8             	mov    -0x8(%rbp),%eax
  4017db:	48 98                	cltq   
  4017dd:	48 8b 55 e8          	mov    -0x18(%rbp),%rdx
  4017e1:	c6 04 02 00          	movb   $0x0,(%rdx,%rax,1)
  4017e5:	83 45 f8 01          	addl   $0x1,-0x8(%rbp)
  4017e9:	83 7d f8 1f          	cmpl   $0x1f,-0x8(%rbp)
  4017ed:	7e e9                	jle    4017d8 <processbin+0x4c>
	for(k=0;k<256;k++){
  4017ef:	c7 45 f4 00 00 00 00 	movl   $0x0,-0xc(%rbp)
  4017f6:	e9 8c 00 00 00       	jmpq   401887 <processbin+0xfb>
		if(k%8==0){
  4017fb:	8b 45 f4             	mov    -0xc(%rbp),%eax
  4017fe:	83 e0 07             	and    $0x7,%eax
  401801:	85 c0                	test   %eax,%eax
  401803:	75 09                	jne    40180e <processbin+0x82>
			oof=1;
  401805:	c7 45 f0 01 00 00 00 	movl   $0x1,-0x10(%rbp)
  40180c:	eb 03                	jmp    401811 <processbin+0x85>
		}
		else{
			oof*=2;
  40180e:	d1 65 f0             	shll   -0x10(%rbp)
		}
		*(newnum->num+(255-k)/8)+=((arr[i-1]-'0')%2)*oof;
  401811:	b8 ff 00 00 00       	mov    $0xff,%eax
  401816:	2b 45 f4             	sub    -0xc(%rbp),%eax
  401819:	8d 50 07             	lea    0x7(%rax),%edx
  40181c:	85 c0                	test   %eax,%eax
  40181e:	0f 48 c2             	cmovs  %edx,%eax
  401821:	c1 f8 03             	sar    $0x3,%eax
  401824:	48 63 c8             	movslq %eax,%rcx
  401827:	48 98                	cltq   
  401829:	48 8b 55 e8          	mov    -0x18(%rbp),%rdx
  40182d:	44 0f b6 04 02       	movzbl (%rdx,%rax,1),%r8d
  401832:	8b 45 fc             	mov    -0x4(%rbp),%eax
  401835:	48 98                	cltq   
  401837:	48 8d 50 ff          	lea    -0x1(%rax),%rdx
  40183b:	48 8b 45 10          	mov    0x10(%rbp),%rax
  40183f:	48 01 d0             	add    %rdx,%rax
  401842:	0f b6 00             	movzbl (%rax),%eax
  401845:	0f be c0             	movsbl %al,%eax
  401848:	8d 50 d0             	lea    -0x30(%rax),%edx
  40184b:	89 d0                	mov    %edx,%eax
  40184d:	c1 f8 1f             	sar    $0x1f,%eax
  401850:	c1 e8 1f             	shr    $0x1f,%eax
  401853:	01 c2                	add    %eax,%edx
  401855:	83 e2 01             	and    $0x1,%edx
  401858:	29 c2                	sub    %eax,%edx
  40185a:	89 d0                	mov    %edx,%eax
  40185c:	41 89 c1             	mov    %eax,%r9d
  40185f:	8b 45 f0             	mov    -0x10(%rbp),%eax
  401862:	89 c2                	mov    %eax,%edx
  401864:	44 89 c8             	mov    %r9d,%eax
  401867:	0f af c2             	imul   %edx,%eax
  40186a:	41 8d 14 00          	lea    (%r8,%rax,1),%edx
  40186e:	48 8b 45 e8          	mov    -0x18(%rbp),%rax
  401872:	88 14 08             	mov    %dl,(%rax,%rcx,1)
		update(arr, i);
  401875:	8b 45 fc             	mov    -0x4(%rbp),%eax
  401878:	89 c2                	mov    %eax,%edx
  40187a:	48 8b 4d 10          	mov    0x10(%rbp),%rcx
  40187e:	e8 2b fe ff ff       	callq  4016ae <update>
			break;
		}
	}
	c256int* newnum = malloc(256*8);
	for(j=0; j<32; j++){*(newnum->num+j)=0;}
	for(k=0;k<256;k++){
  401883:	83 45 f4 01          	addl   $0x1,-0xc(%rbp)
  401887:	81 7d f4 ff 00 00 00 	cmpl   $0xff,-0xc(%rbp)
  40188e:	0f 8e 67 ff ff ff    	jle    4017fb <processbin+0x6f>
			oof*=2;
		}
		*(newnum->num+(255-k)/8)+=((arr[i-1]-'0')%2)*oof;
		update(arr, i);
	}
	return newnum;
  401894:	48 8b 45 e8          	mov    -0x18(%rbp),%rax
}
  401898:	48 83 c4 40          	add    $0x40,%rsp
  40189c:	5d                   	pop    %rbp
  40189d:	c3                   	retq   

000000000040189e <prettyprint>:

void prettyprint(c256int* num1){
  40189e:	55                   	push   %rbp
  40189f:	48 89 e5             	mov    %rsp,%rbp
  4018a2:	48 83 ec 30          	sub    $0x30,%rsp
  4018a6:	48 89 4d 10          	mov    %rcx,0x10(%rbp)
	//num is 32 byte char array (known)
	//WEIRD behaviour, printf is modifying num1->num values
	int i;
	for(i=0;i<32;i+=1){
  4018aa:	c7 45 fc 00 00 00 00 	movl   $0x0,-0x4(%rbp)
  4018b1:	eb 24                	jmp    4018d7 <prettyprint+0x39>
		char temp = *(num1->num+i);
  4018b3:	8b 45 fc             	mov    -0x4(%rbp),%eax
  4018b6:	48 98                	cltq   
  4018b8:	48 8b 55 10          	mov    0x10(%rbp),%rdx
  4018bc:	0f b6 04 02          	movzbl (%rdx,%rax,1),%eax
  4018c0:	88 45 fb             	mov    %al,-0x5(%rbp)
		//printf("%X ",(unsigned) temp);
		printf("fniewnforg");
  4018c3:	48 8d 0d 7f 27 00 00 	lea    0x277f(%rip),%rcx        # 404049 <.rdata+0x49>
  4018ca:	e8 b9 15 00 00       	callq  402e88 <printf>
		temp = 5;
  4018cf:	c6 45 fb 05          	movb   $0x5,-0x5(%rbp)

void prettyprint(c256int* num1){
	//num is 32 byte char array (known)
	//WEIRD behaviour, printf is modifying num1->num values
	int i;
	for(i=0;i<32;i+=1){
  4018d3:	83 45 fc 01          	addl   $0x1,-0x4(%rbp)
  4018d7:	83 7d fc 1f          	cmpl   $0x1f,-0x4(%rbp)
  4018db:	7e d6                	jle    4018b3 <prettyprint+0x15>
		char temp = *(num1->num+i);
		//printf("%X ",(unsigned) temp);
		printf("fniewnforg");
		temp = 5;
	}
}
  4018dd:	48 83 c4 30          	add    $0x30,%rsp
  4018e1:	5d                   	pop    %rbp
  4018e2:	c3                   	retq   
  4018e3:	90                   	nop
  4018e4:	90                   	nop
  4018e5:	90                   	nop
  4018e6:	90                   	nop
  4018e7:	90                   	nop
  4018e8:	90                   	nop
  4018e9:	90                   	nop
  4018ea:	90                   	nop
  4018eb:	90                   	nop
  4018ec:	90                   	nop
  4018ed:	90                   	nop
  4018ee:	90                   	nop
  4018ef:	90                   	nop

00000000004018f0 <_decode_pointer>:
  4018f0:	48 89 c8             	mov    %rcx,%rax
  4018f3:	c3                   	retq   
  4018f4:	66 66 66 2e 0f 1f 84 	data16 data16 nopw %cs:0x0(%rax,%rax,1)
  4018fb:	00 00 00 00 00 

0000000000401900 <_encode_pointer>:
  401900:	48 89 c8             	mov    %rcx,%rax
  401903:	c3                   	retq   
  401904:	90                   	nop
  401905:	90                   	nop
  401906:	90                   	nop
  401907:	90                   	nop
  401908:	90                   	nop
  401909:	90                   	nop
  40190a:	90                   	nop
  40190b:	90                   	nop
  40190c:	90                   	nop
  40190d:	90                   	nop
  40190e:	90                   	nop
  40190f:	90                   	nop

0000000000401910 <_setargv>:
  401910:	31 c0                	xor    %eax,%eax
  401912:	c3                   	retq   
  401913:	90                   	nop
  401914:	90                   	nop
  401915:	90                   	nop
  401916:	90                   	nop
  401917:	90                   	nop
  401918:	90                   	nop
  401919:	90                   	nop
  40191a:	90                   	nop
  40191b:	90                   	nop
  40191c:	90                   	nop
  40191d:	90                   	nop
  40191e:	90                   	nop
  40191f:	90                   	nop

0000000000401920 <__mingw_raise_matherr>:
  401920:	48 83 ec 58          	sub    $0x58,%rsp
  401924:	48 8b 05 15 57 00 00 	mov    0x5715(%rip),%rax        # 407040 <stUserMathErr>
  40192b:	48 85 c0             	test   %rax,%rax
  40192e:	74 2c                	je     40195c <__mingw_raise_matherr+0x3c>
  401930:	f2 0f 10 84 24 80 00 	movsd  0x80(%rsp),%xmm0
  401937:	00 00 
  401939:	89 4c 24 20          	mov    %ecx,0x20(%rsp)
  40193d:	48 8d 4c 24 20       	lea    0x20(%rsp),%rcx
  401942:	48 89 54 24 28       	mov    %rdx,0x28(%rsp)
  401947:	f2 0f 11 54 24 30    	movsd  %xmm2,0x30(%rsp)
  40194d:	f2 0f 11 5c 24 38    	movsd  %xmm3,0x38(%rsp)
  401953:	f2 0f 11 44 24 40    	movsd  %xmm0,0x40(%rsp)
  401959:	ff d0                	callq  *%rax
  40195b:	90                   	nop
  40195c:	48 83 c4 58          	add    $0x58,%rsp
  401960:	c3                   	retq   
  401961:	66 66 66 66 66 66 2e 	data16 data16 data16 data16 data16 nopw %cs:0x0(%rax,%rax,1)
  401968:	0f 1f 84 00 00 00 00 
  40196f:	00 

0000000000401970 <__mingw_setusermatherr>:
  401970:	48 89 0d c9 56 00 00 	mov    %rcx,0x56c9(%rip)        # 407040 <stUserMathErr>
  401977:	e9 24 15 00 00       	jmpq   402ea0 <__setusermatherr>
  40197c:	0f 1f 40 00          	nopl   0x0(%rax)

0000000000401980 <_matherr>:
  401980:	56                   	push   %rsi
  401981:	53                   	push   %rbx
  401982:	48 83 ec 78          	sub    $0x78,%rsp
  401986:	0f 29 74 24 40       	movaps %xmm6,0x40(%rsp)
  40198b:	0f 29 7c 24 50       	movaps %xmm7,0x50(%rsp)
  401990:	44 0f 29 44 24 60    	movaps %xmm8,0x60(%rsp)
  401996:	83 39 06             	cmpl   $0x6,(%rcx)
  401999:	0f 87 d1 00 00 00    	ja     401a70 <_matherr+0xf0>
  40199f:	8b 11                	mov    (%rcx),%edx
  4019a1:	48 8d 05 dc 27 00 00 	lea    0x27dc(%rip),%rax        # 404184 <.rdata+0x124>
  4019a8:	48 63 14 90          	movslq (%rax,%rdx,4),%rdx
  4019ac:	48 01 d0             	add    %rdx,%rax
  4019af:	ff e0                	jmpq   *%rax
  4019b1:	48 8d 1d a8 26 00 00 	lea    0x26a8(%rip),%rbx        # 404060 <.rdata>
  4019b8:	0f 1f 84 00 00 00 00 	nopl   0x0(%rax,%rax,1)
  4019bf:	00 
  4019c0:	f2 44 0f 10 41 20    	movsd  0x20(%rcx),%xmm8
  4019c6:	48 8b 71 08          	mov    0x8(%rcx),%rsi
  4019ca:	f2 0f 10 79 18       	movsd  0x18(%rcx),%xmm7
  4019cf:	f2 0f 10 71 10       	movsd  0x10(%rcx),%xmm6
  4019d4:	e8 cf 14 00 00       	callq  402ea8 <__iob_func>
  4019d9:	f2 44 0f 11 44 24 30 	movsd  %xmm8,0x30(%rsp)
  4019e0:	48 8d 48 60          	lea    0x60(%rax),%rcx
  4019e4:	48 8d 15 6d 27 00 00 	lea    0x276d(%rip),%rdx        # 404158 <.rdata+0xf8>
  4019eb:	f2 0f 11 7c 24 28    	movsd  %xmm7,0x28(%rsp)
  4019f1:	49 89 f1             	mov    %rsi,%r9
  4019f4:	49 89 d8             	mov    %rbx,%r8
  4019f7:	f2 0f 11 74 24 20    	movsd  %xmm6,0x20(%rsp)
  4019fd:	e8 ae 14 00 00       	callq  402eb0 <fprintf>
  401a02:	90                   	nop
  401a03:	0f 28 74 24 40       	movaps 0x40(%rsp),%xmm6
  401a08:	31 c0                	xor    %eax,%eax
  401a0a:	0f 28 7c 24 50       	movaps 0x50(%rsp),%xmm7
  401a0f:	44 0f 28 44 24 60    	movaps 0x60(%rsp),%xmm8
  401a15:	48 83 c4 78          	add    $0x78,%rsp
  401a19:	5b                   	pop    %rbx
  401a1a:	5e                   	pop    %rsi
  401a1b:	c3                   	retq   
  401a1c:	0f 1f 40 00          	nopl   0x0(%rax)
  401a20:	48 8d 1d 58 26 00 00 	lea    0x2658(%rip),%rbx        # 40407f <.rdata+0x1f>
  401a27:	eb 97                	jmp    4019c0 <_matherr+0x40>
  401a29:	0f 1f 80 00 00 00 00 	nopl   0x0(%rax)
  401a30:	48 8d 1d 69 26 00 00 	lea    0x2669(%rip),%rbx        # 4040a0 <.rdata+0x40>
  401a37:	eb 87                	jmp    4019c0 <_matherr+0x40>
  401a39:	0f 1f 80 00 00 00 00 	nopl   0x0(%rax)
  401a40:	48 8d 1d c9 26 00 00 	lea    0x26c9(%rip),%rbx        # 404110 <.rdata+0xb0>
  401a47:	e9 74 ff ff ff       	jmpq   4019c0 <_matherr+0x40>
  401a4c:	0f 1f 40 00          	nopl   0x0(%rax)
  401a50:	48 8d 1d 91 26 00 00 	lea    0x2691(%rip),%rbx        # 4040e8 <.rdata+0x88>
  401a57:	e9 64 ff ff ff       	jmpq   4019c0 <_matherr+0x40>
  401a5c:	0f 1f 40 00          	nopl   0x0(%rax)
  401a60:	48 8d 1d 59 26 00 00 	lea    0x2659(%rip),%rbx        # 4040c0 <.rdata+0x60>
  401a67:	e9 54 ff ff ff       	jmpq   4019c0 <_matherr+0x40>
  401a6c:	0f 1f 40 00          	nopl   0x0(%rax)
  401a70:	48 8d 1d cf 26 00 00 	lea    0x26cf(%rip),%rbx        # 404146 <.rdata+0xe6>
  401a77:	e9 44 ff ff ff       	jmpq   4019c0 <_matherr+0x40>
  401a7c:	90                   	nop
  401a7d:	90                   	nop
  401a7e:	90                   	nop
  401a7f:	90                   	nop

0000000000401a80 <__report_error>:
  401a80:	56                   	push   %rsi
  401a81:	53                   	push   %rbx
  401a82:	48 83 ec 38          	sub    $0x38,%rsp
  401a86:	48 8d 44 24 58       	lea    0x58(%rsp),%rax
  401a8b:	48 89 cb             	mov    %rcx,%rbx
  401a8e:	48 89 54 24 58       	mov    %rdx,0x58(%rsp)
  401a93:	4c 89 44 24 60       	mov    %r8,0x60(%rsp)
  401a98:	4c 89 4c 24 68       	mov    %r9,0x68(%rsp)
  401a9d:	48 89 44 24 28       	mov    %rax,0x28(%rsp)
  401aa2:	e8 01 14 00 00       	callq  402ea8 <__iob_func>
  401aa7:	48 8d 0d f2 26 00 00 	lea    0x26f2(%rip),%rcx        # 4041a0 <.rdata>
  401aae:	4c 8d 48 60          	lea    0x60(%rax),%r9
  401ab2:	41 b8 1b 00 00 00    	mov    $0x1b,%r8d
  401ab8:	ba 01 00 00 00       	mov    $0x1,%edx
  401abd:	e8 f6 13 00 00       	callq  402eb8 <fwrite>
  401ac2:	48 8b 74 24 28       	mov    0x28(%rsp),%rsi
  401ac7:	e8 dc 13 00 00       	callq  402ea8 <__iob_func>
  401acc:	48 8d 48 60          	lea    0x60(%rax),%rcx
  401ad0:	48 89 da             	mov    %rbx,%rdx
  401ad3:	49 89 f0             	mov    %rsi,%r8
  401ad6:	e8 e5 13 00 00       	callq  402ec0 <vfprintf>
  401adb:	e8 e8 13 00 00       	callq  402ec8 <abort>
  401ae0:	90                   	nop
  401ae1:	66 66 66 66 66 66 2e 	data16 data16 data16 data16 data16 nopw %cs:0x0(%rax,%rax,1)
  401ae8:	0f 1f 84 00 00 00 00 
  401aef:	00 

0000000000401af0 <__write_memory.part.0>:
  401af0:	41 55                	push   %r13
  401af2:	41 54                	push   %r12
  401af4:	55                   	push   %rbp
  401af5:	57                   	push   %rdi
  401af6:	56                   	push   %rsi
  401af7:	53                   	push   %rbx
  401af8:	48 83 ec 58          	sub    $0x58,%rsp
  401afc:	48 63 2d 51 55 00 00 	movslq 0x5551(%rip),%rbp        # 407054 <maxSections>
  401b03:	48 89 cb             	mov    %rcx,%rbx
  401b06:	48 89 d6             	mov    %rdx,%rsi
  401b09:	4c 89 c7             	mov    %r8,%rdi
  401b0c:	85 ed                	test   %ebp,%ebp
  401b0e:	0f 8e f6 00 00 00    	jle    401c0a <__write_memory.part.0+0x11a>
  401b14:	48 8b 05 3d 55 00 00 	mov    0x553d(%rip),%rax        # 407058 <the_secs>
  401b1b:	45 31 c9             	xor    %r9d,%r9d
  401b1e:	48 83 c0 08          	add    $0x8,%rax
  401b22:	4c 8b 10             	mov    (%rax),%r10
  401b25:	4c 39 d3             	cmp    %r10,%rbx
  401b28:	72 14                	jb     401b3e <__write_memory.part.0+0x4e>
  401b2a:	48 8b 50 08          	mov    0x8(%rax),%rdx
  401b2e:	44 8b 5a 08          	mov    0x8(%rdx),%r11d
  401b32:	4d 01 da             	add    %r11,%r10
  401b35:	4c 39 d3             	cmp    %r10,%rbx
  401b38:	0f 82 b2 00 00 00    	jb     401bf0 <__write_memory.part.0+0x100>
  401b3e:	41 83 c1 01          	add    $0x1,%r9d
  401b42:	48 83 c0 18          	add    $0x18,%rax
  401b46:	41 39 e9             	cmp    %ebp,%r9d
  401b49:	75 d7                	jne    401b22 <__write_memory.part.0+0x32>
  401b4b:	48 89 d9             	mov    %rbx,%rcx
  401b4e:	e8 dd 0d 00 00       	callq  402930 <__mingw_GetSectionForAddress>
  401b53:	48 85 c0             	test   %rax,%rax
  401b56:	49 89 c4             	mov    %rax,%r12
  401b59:	0f 84 e3 00 00 00    	je     401c42 <__write_memory.part.0+0x152>
  401b5f:	48 8d 6c 6d 00       	lea    0x0(%rbp,%rbp,2),%rbp
  401b64:	48 c1 e5 03          	shl    $0x3,%rbp
  401b68:	49 89 ed             	mov    %rbp,%r13
  401b6b:	4c 03 2d e6 54 00 00 	add    0x54e6(%rip),%r13        # 407058 <the_secs>
  401b72:	49 89 45 10          	mov    %rax,0x10(%r13)
  401b76:	41 c7 45 00 00 00 00 	movl   $0x0,0x0(%r13)
  401b7d:	00 
  401b7e:	e8 cd 0e 00 00       	callq  402a50 <_GetPEImageBase>
  401b83:	41 8b 54 24 0c       	mov    0xc(%r12),%edx
  401b88:	41 b8 30 00 00 00    	mov    $0x30,%r8d
  401b8e:	48 01 d0             	add    %rdx,%rax
  401b91:	48 8d 54 24 20       	lea    0x20(%rsp),%rdx
  401b96:	49 89 45 08          	mov    %rax,0x8(%r13)
  401b9a:	48 8b 05 b7 54 00 00 	mov    0x54b7(%rip),%rax        # 407058 <the_secs>
  401ba1:	48 8b 4c 28 08       	mov    0x8(%rax,%rbp,1),%rcx
  401ba6:	ff 15 00 67 00 00    	callq  *0x6700(%rip)        # 4082ac <__imp_VirtualQuery>
  401bac:	48 85 c0             	test   %rax,%rax
  401baf:	74 74                	je     401c25 <__write_memory.part.0+0x135>
  401bb1:	8b 44 24 44          	mov    0x44(%rsp),%eax
  401bb5:	8d 50 fc             	lea    -0x4(%rax),%edx
  401bb8:	83 e2 fb             	and    $0xfffffffb,%edx
  401bbb:	74 2c                	je     401be9 <__write_memory.part.0+0xf9>
  401bbd:	83 e8 40             	sub    $0x40,%eax
  401bc0:	83 e0 bf             	and    $0xffffffbf,%eax
  401bc3:	74 24                	je     401be9 <__write_memory.part.0+0xf9>
  401bc5:	49 89 e9             	mov    %rbp,%r9
  401bc8:	4c 03 0d 89 54 00 00 	add    0x5489(%rip),%r9        # 407058 <the_secs>
  401bcf:	41 b8 40 00 00 00    	mov    $0x40,%r8d
  401bd5:	48 8b 54 24 38       	mov    0x38(%rsp),%rdx
  401bda:	48 8b 4c 24 20       	mov    0x20(%rsp),%rcx
  401bdf:	ff 15 bf 66 00 00    	callq  *0x66bf(%rip)        # 4082a4 <__imp_VirtualProtect>
  401be5:	85 c0                	test   %eax,%eax
  401be7:	74 28                	je     401c11 <__write_memory.part.0+0x121>
  401be9:	83 05 64 54 00 00 01 	addl   $0x1,0x5464(%rip)        # 407054 <maxSections>
  401bf0:	49 89 f8             	mov    %rdi,%r8
  401bf3:	48 89 f2             	mov    %rsi,%rdx
  401bf6:	48 89 d9             	mov    %rbx,%rcx
  401bf9:	48 83 c4 58          	add    $0x58,%rsp
  401bfd:	5b                   	pop    %rbx
  401bfe:	5e                   	pop    %rsi
  401bff:	5f                   	pop    %rdi
  401c00:	5d                   	pop    %rbp
  401c01:	41 5c                	pop    %r12
  401c03:	41 5d                	pop    %r13
  401c05:	e9 56 12 00 00       	jmpq   402e60 <memcpy>
  401c0a:	31 ed                	xor    %ebp,%ebp
  401c0c:	e9 3a ff ff ff       	jmpq   401b4b <__write_memory.part.0+0x5b>
  401c11:	ff 15 0d 66 00 00    	callq  *0x660d(%rip)        # 408224 <__imp_GetLastError>
  401c17:	48 8d 0d fa 25 00 00 	lea    0x25fa(%rip),%rcx        # 404218 <.rdata+0x78>
  401c1e:	89 c2                	mov    %eax,%edx
  401c20:	e8 5b fe ff ff       	callq  401a80 <__report_error>
  401c25:	48 8b 05 2c 54 00 00 	mov    0x542c(%rip),%rax        # 407058 <the_secs>
  401c2c:	41 8b 54 24 08       	mov    0x8(%r12),%edx
  401c31:	48 8d 0d a8 25 00 00 	lea    0x25a8(%rip),%rcx        # 4041e0 <.rdata+0x40>
  401c38:	4c 8b 44 28 08       	mov    0x8(%rax,%rbp,1),%r8
  401c3d:	e8 3e fe ff ff       	callq  401a80 <__report_error>
  401c42:	48 8d 0d 77 25 00 00 	lea    0x2577(%rip),%rcx        # 4041c0 <.rdata+0x20>
  401c49:	48 89 da             	mov    %rbx,%rdx
  401c4c:	e8 2f fe ff ff       	callq  401a80 <__report_error>
  401c51:	90                   	nop
  401c52:	66 66 66 66 66 2e 0f 	data16 data16 data16 data16 nopw %cs:0x0(%rax,%rax,1)
  401c59:	1f 84 00 00 00 00 00 

0000000000401c60 <_pei386_runtime_relocator>:
  401c60:	55                   	push   %rbp
  401c61:	41 56                	push   %r14
  401c63:	41 55                	push   %r13
  401c65:	41 54                	push   %r12
  401c67:	57                   	push   %rdi
  401c68:	56                   	push   %rsi
  401c69:	53                   	push   %rbx
  401c6a:	48 89 e5             	mov    %rsp,%rbp
  401c6d:	48 83 ec 60          	sub    $0x60,%rsp
  401c71:	8b 1d d9 53 00 00    	mov    0x53d9(%rip),%ebx        # 407050 <was_init.73980>
  401c77:	85 db                	test   %ebx,%ebx
  401c79:	74 15                	je     401c90 <_pei386_runtime_relocator+0x30>
  401c7b:	48 89 ec             	mov    %rbp,%rsp
  401c7e:	5b                   	pop    %rbx
  401c7f:	5e                   	pop    %rsi
  401c80:	5f                   	pop    %rdi
  401c81:	41 5c                	pop    %r12
  401c83:	41 5d                	pop    %r13
  401c85:	41 5e                	pop    %r14
  401c87:	5d                   	pop    %rbp
  401c88:	c3                   	retq   
  401c89:	0f 1f 80 00 00 00 00 	nopl   0x0(%rax)
  401c90:	c7 05 b6 53 00 00 01 	movl   $0x1,0x53b6(%rip)        # 407050 <was_init.73980>
  401c97:	00 00 00 
  401c9a:	e8 e1 0c 00 00       	callq  402980 <__mingw_GetSectionCount>
  401c9f:	48 98                	cltq   
  401ca1:	48 8d 04 40          	lea    (%rax,%rax,2),%rax
  401ca5:	48 8d 04 c5 1e 00 00 	lea    0x1e(,%rax,8),%rax
  401cac:	00 
  401cad:	48 83 e0 f0          	and    $0xfffffffffffffff0,%rax
  401cb1:	e8 1a 11 00 00       	callq  402dd0 <___chkstk_ms>
  401cb6:	48 8b 35 53 26 00 00 	mov    0x2653(%rip),%rsi        # 404310 <.refptr.__RUNTIME_PSEUDO_RELOC_LIST_END__>
  401cbd:	48 8b 1d 5c 26 00 00 	mov    0x265c(%rip),%rbx        # 404320 <.refptr.__RUNTIME_PSEUDO_RELOC_LIST__>
  401cc4:	48 29 c4             	sub    %rax,%rsp
  401cc7:	c7 05 83 53 00 00 00 	movl   $0x0,0x5383(%rip)        # 407054 <maxSections>
  401cce:	00 00 00 
  401cd1:	48 8d 44 24 20       	lea    0x20(%rsp),%rax
  401cd6:	48 89 05 7b 53 00 00 	mov    %rax,0x537b(%rip)        # 407058 <the_secs>
  401cdd:	48 89 f0             	mov    %rsi,%rax
  401ce0:	48 29 d8             	sub    %rbx,%rax
  401ce3:	48 83 f8 07          	cmp    $0x7,%rax
  401ce7:	7e 92                	jle    401c7b <_pei386_runtime_relocator+0x1b>
  401ce9:	48 83 f8 0b          	cmp    $0xb,%rax
  401ced:	7e 26                	jle    401d15 <_pei386_runtime_relocator+0xb5>
  401cef:	44 8b 1b             	mov    (%rbx),%r11d
  401cf2:	45 85 db             	test   %r11d,%r11d
  401cf5:	0f 85 45 01 00 00    	jne    401e40 <_pei386_runtime_relocator+0x1e0>
  401cfb:	44 8b 53 04          	mov    0x4(%rbx),%r10d
  401cff:	45 85 d2             	test   %r10d,%r10d
  401d02:	0f 85 38 01 00 00    	jne    401e40 <_pei386_runtime_relocator+0x1e0>
  401d08:	44 8b 4b 08          	mov    0x8(%rbx),%r9d
  401d0c:	45 85 c9             	test   %r9d,%r9d
  401d0f:	75 1b                	jne    401d2c <_pei386_runtime_relocator+0xcc>
  401d11:	48 83 c3 0c          	add    $0xc,%rbx
  401d15:	44 8b 03             	mov    (%rbx),%r8d
  401d18:	45 85 c0             	test   %r8d,%r8d
  401d1b:	0f 85 1f 01 00 00    	jne    401e40 <_pei386_runtime_relocator+0x1e0>
  401d21:	8b 4b 04             	mov    0x4(%rbx),%ecx
  401d24:	85 c9                	test   %ecx,%ecx
  401d26:	0f 85 14 01 00 00    	jne    401e40 <_pei386_runtime_relocator+0x1e0>
  401d2c:	8b 53 08             	mov    0x8(%rbx),%edx
  401d2f:	83 fa 01             	cmp    $0x1,%edx
  401d32:	0f 85 14 02 00 00    	jne    401f4c <_pei386_runtime_relocator+0x2ec>
  401d38:	48 83 c3 0c          	add    $0xc,%rbx
  401d3c:	48 39 f3             	cmp    %rsi,%rbx
  401d3f:	0f 83 36 ff ff ff    	jae    401c7b <_pei386_runtime_relocator+0x1b>
  401d45:	4c 8b 25 f4 25 00 00 	mov    0x25f4(%rip),%r12        # 404340 <.refptr.__image_base__>
  401d4c:	4c 8d 6d d0          	lea    -0x30(%rbp),%r13
  401d50:	49 be 00 00 00 00 ff 	movabs $0xffffffff00000000,%r14
  401d57:	ff ff ff 
  401d5a:	8b 4b 04             	mov    0x4(%rbx),%ecx
  401d5d:	8b 03                	mov    (%rbx),%eax
  401d5f:	0f b6 53 08          	movzbl 0x8(%rbx),%edx
  401d63:	4c 01 e0             	add    %r12,%rax
  401d66:	4c 01 e1             	add    %r12,%rcx
  401d69:	83 fa 10             	cmp    $0x10,%edx
  401d6c:	4c 8b 00             	mov    (%rax),%r8
  401d6f:	0f 84 41 01 00 00    	je     401eb6 <_pei386_runtime_relocator+0x256>
  401d75:	0f 86 02 01 00 00    	jbe    401e7d <_pei386_runtime_relocator+0x21d>
  401d7b:	83 fa 20             	cmp    $0x20,%edx
  401d7e:	0f 84 7b 01 00 00    	je     401eff <_pei386_runtime_relocator+0x29f>
  401d84:	83 fa 40             	cmp    $0x40,%edx
  401d87:	0f 85 5e 01 00 00    	jne    401eeb <_pei386_runtime_relocator+0x28b>
  401d8d:	49 29 c0             	sub    %rax,%r8
  401d90:	4c 89 ea             	mov    %r13,%rdx
  401d93:	4c 89 ef             	mov    %r13,%rdi
  401d96:	4c 89 c0             	mov    %r8,%rax
  401d99:	48 03 01             	add    (%rcx),%rax
  401d9c:	41 b8 08 00 00 00    	mov    $0x8,%r8d
  401da2:	48 89 45 d0          	mov    %rax,-0x30(%rbp)
  401da6:	e8 45 fd ff ff       	callq  401af0 <__write_memory.part.0>
  401dab:	48 83 c3 0c          	add    $0xc,%rbx
  401daf:	48 39 f3             	cmp    %rsi,%rbx
  401db2:	72 a6                	jb     401d5a <_pei386_runtime_relocator+0xfa>
  401db4:	8b 05 9a 52 00 00    	mov    0x529a(%rip),%eax        # 407054 <maxSections>
  401dba:	31 db                	xor    %ebx,%ebx
  401dbc:	31 f6                	xor    %esi,%esi
  401dbe:	85 c0                	test   %eax,%eax
  401dc0:	0f 8e b5 fe ff ff    	jle    401c7b <_pei386_runtime_relocator+0x1b>
  401dc6:	4c 8b 35 df 64 00 00 	mov    0x64df(%rip),%r14        # 4082ac <__imp_VirtualQuery>
  401dcd:	4c 8d 6d cc          	lea    -0x34(%rbp),%r13
  401dd1:	4c 8b 25 cc 64 00 00 	mov    0x64cc(%rip),%r12        # 4082a4 <__imp_VirtualProtect>
  401dd8:	eb 19                	jmp    401df3 <_pei386_runtime_relocator+0x193>
  401dda:	66 0f 1f 44 00 00    	nopw   0x0(%rax,%rax,1)
  401de0:	83 c6 01             	add    $0x1,%esi
  401de3:	48 83 c3 18          	add    $0x18,%rbx
  401de7:	3b 35 67 52 00 00    	cmp    0x5267(%rip),%esi        # 407054 <maxSections>
  401ded:	0f 8d 88 fe ff ff    	jge    401c7b <_pei386_runtime_relocator+0x1b>
  401df3:	48 89 d8             	mov    %rbx,%rax
  401df6:	48 03 05 5b 52 00 00 	add    0x525b(%rip),%rax        # 407058 <the_secs>
  401dfd:	8b 10                	mov    (%rax),%edx
  401dff:	85 d2                	test   %edx,%edx
  401e01:	74 dd                	je     401de0 <_pei386_runtime_relocator+0x180>
  401e03:	48 8b 48 08          	mov    0x8(%rax),%rcx
  401e07:	41 b8 30 00 00 00    	mov    $0x30,%r8d
  401e0d:	48 89 fa             	mov    %rdi,%rdx
  401e10:	41 ff d6             	callq  *%r14
  401e13:	48 85 c0             	test   %rax,%rax
  401e16:	0f 84 12 01 00 00    	je     401f2e <_pei386_runtime_relocator+0x2ce>
  401e1c:	48 8b 05 35 52 00 00 	mov    0x5235(%rip),%rax        # 407058 <the_secs>
  401e23:	4d 89 e9             	mov    %r13,%r9
  401e26:	48 8b 55 e8          	mov    -0x18(%rbp),%rdx
  401e2a:	48 8b 4d d0          	mov    -0x30(%rbp),%rcx
  401e2e:	44 8b 04 18          	mov    (%rax,%rbx,1),%r8d
  401e32:	41 ff d4             	callq  *%r12
  401e35:	eb a9                	jmp    401de0 <_pei386_runtime_relocator+0x180>
  401e37:	66 0f 1f 84 00 00 00 	nopw   0x0(%rax,%rax,1)
  401e3e:	00 00 
  401e40:	48 39 f3             	cmp    %rsi,%rbx
  401e43:	0f 83 32 fe ff ff    	jae    401c7b <_pei386_runtime_relocator+0x1b>
  401e49:	4c 8b 25 f0 24 00 00 	mov    0x24f0(%rip),%r12        # 404340 <.refptr.__image_base__>
  401e50:	48 8d 7d d0          	lea    -0x30(%rbp),%rdi
  401e54:	8b 4b 04             	mov    0x4(%rbx),%ecx
  401e57:	8b 03                	mov    (%rbx),%eax
  401e59:	41 b8 04 00 00 00    	mov    $0x4,%r8d
  401e5f:	48 89 fa             	mov    %rdi,%rdx
  401e62:	48 83 c3 08          	add    $0x8,%rbx
  401e66:	4c 01 e1             	add    %r12,%rcx
  401e69:	03 01                	add    (%rcx),%eax
  401e6b:	89 45 d0             	mov    %eax,-0x30(%rbp)
  401e6e:	e8 7d fc ff ff       	callq  401af0 <__write_memory.part.0>
  401e73:	48 39 f3             	cmp    %rsi,%rbx
  401e76:	72 dc                	jb     401e54 <_pei386_runtime_relocator+0x1f4>
  401e78:	e9 37 ff ff ff       	jmpq   401db4 <_pei386_runtime_relocator+0x154>
  401e7d:	83 fa 08             	cmp    $0x8,%edx
  401e80:	75 69                	jne    401eeb <_pei386_runtime_relocator+0x28b>
  401e82:	0f b6 11             	movzbl (%rcx),%edx
  401e85:	4c 89 ef             	mov    %r13,%rdi
  401e88:	49 89 d2             	mov    %rdx,%r10
  401e8b:	49 81 ca 00 ff ff ff 	or     $0xffffffffffffff00,%r10
  401e92:	84 d2                	test   %dl,%dl
  401e94:	49 0f 48 d2          	cmovs  %r10,%rdx
  401e98:	48 29 c2             	sub    %rax,%rdx
  401e9b:	49 8d 04 10          	lea    (%r8,%rdx,1),%rax
  401e9f:	41 b8 01 00 00 00    	mov    $0x1,%r8d
  401ea5:	4c 89 ea             	mov    %r13,%rdx
  401ea8:	48 89 45 d0          	mov    %rax,-0x30(%rbp)
  401eac:	e8 3f fc ff ff       	callq  401af0 <__write_memory.part.0>
  401eb1:	e9 f5 fe ff ff       	jmpq   401dab <_pei386_runtime_relocator+0x14b>
  401eb6:	0f b7 11             	movzwl (%rcx),%edx
  401eb9:	4c 89 ef             	mov    %r13,%rdi
  401ebc:	49 89 d2             	mov    %rdx,%r10
  401ebf:	49 81 ca 00 00 ff ff 	or     $0xffffffffffff0000,%r10
  401ec6:	66 85 d2             	test   %dx,%dx
  401ec9:	49 0f 48 d2          	cmovs  %r10,%rdx
  401ecd:	48 29 c2             	sub    %rax,%rdx
  401ed0:	49 8d 04 10          	lea    (%r8,%rdx,1),%rax
  401ed4:	41 b8 02 00 00 00    	mov    $0x2,%r8d
  401eda:	4c 89 ea             	mov    %r13,%rdx
  401edd:	48 89 45 d0          	mov    %rax,-0x30(%rbp)
  401ee1:	e8 0a fc ff ff       	callq  401af0 <__write_memory.part.0>
  401ee6:	e9 c0 fe ff ff       	jmpq   401dab <_pei386_runtime_relocator+0x14b>
  401eeb:	48 8d 0d 86 23 00 00 	lea    0x2386(%rip),%rcx        # 404278 <.rdata+0xd8>
  401ef2:	48 c7 45 d0 00 00 00 	movq   $0x0,-0x30(%rbp)
  401ef9:	00 
  401efa:	e8 81 fb ff ff       	callq  401a80 <__report_error>
  401eff:	8b 11                	mov    (%rcx),%edx
  401f01:	4c 89 ef             	mov    %r13,%rdi
  401f04:	49 89 d2             	mov    %rdx,%r10
  401f07:	4d 09 f2             	or     %r14,%r10
  401f0a:	85 d2                	test   %edx,%edx
  401f0c:	49 0f 48 d2          	cmovs  %r10,%rdx
  401f10:	48 29 c2             	sub    %rax,%rdx
  401f13:	49 8d 04 10          	lea    (%r8,%rdx,1),%rax
  401f17:	41 b8 04 00 00 00    	mov    $0x4,%r8d
  401f1d:	4c 89 ea             	mov    %r13,%rdx
  401f20:	48 89 45 d0          	mov    %rax,-0x30(%rbp)
  401f24:	e8 c7 fb ff ff       	callq  401af0 <__write_memory.part.0>
  401f29:	e9 7d fe ff ff       	jmpq   401dab <_pei386_runtime_relocator+0x14b>
  401f2e:	48 03 1d 23 51 00 00 	add    0x5123(%rip),%rbx        # 407058 <the_secs>
  401f35:	48 8d 0d a4 22 00 00 	lea    0x22a4(%rip),%rcx        # 4041e0 <.rdata+0x40>
  401f3c:	48 8b 43 10          	mov    0x10(%rbx),%rax
  401f40:	4c 8b 43 08          	mov    0x8(%rbx),%r8
  401f44:	8b 50 08             	mov    0x8(%rax),%edx
  401f47:	e8 34 fb ff ff       	callq  401a80 <__report_error>
  401f4c:	48 8d 0d ed 22 00 00 	lea    0x22ed(%rip),%rcx        # 404240 <.rdata+0xa0>
  401f53:	e8 28 fb ff ff       	callq  401a80 <__report_error>
  401f58:	90                   	nop
  401f59:	90                   	nop
  401f5a:	90                   	nop
  401f5b:	90                   	nop
  401f5c:	90                   	nop
  401f5d:	90                   	nop
  401f5e:	90                   	nop
  401f5f:	90                   	nop

0000000000401f60 <__mingw_SEH_error_handler>:
  401f60:	48 83 ec 28          	sub    $0x28,%rsp
  401f64:	8b 01                	mov    (%rcx),%eax
  401f66:	3d 91 00 00 c0       	cmp    $0xc0000091,%eax
  401f6b:	77 63                	ja     401fd0 <__mingw_SEH_error_handler+0x70>
  401f6d:	3d 8d 00 00 c0       	cmp    $0xc000008d,%eax
  401f72:	73 7b                	jae    401fef <__mingw_SEH_error_handler+0x8f>
  401f74:	3d 08 00 00 c0       	cmp    $0xc0000008,%eax
  401f79:	0f 84 11 01 00 00    	je     402090 <__mingw_SEH_error_handler+0x130>
  401f7f:	0f 87 db 00 00 00    	ja     402060 <__mingw_SEH_error_handler+0x100>
  401f85:	3d 02 00 00 80       	cmp    $0x80000002,%eax
  401f8a:	0f 84 00 01 00 00    	je     402090 <__mingw_SEH_error_handler+0x130>
  401f90:	3d 05 00 00 c0       	cmp    $0xc0000005,%eax
  401f95:	0f 85 d3 00 00 00    	jne    40206e <__mingw_SEH_error_handler+0x10e>
  401f9b:	31 d2                	xor    %edx,%edx
  401f9d:	b9 0b 00 00 00       	mov    $0xb,%ecx
  401fa2:	e8 29 0f 00 00       	callq  402ed0 <signal>
  401fa7:	48 83 f8 01          	cmp    $0x1,%rax
  401fab:	0f 84 3f 01 00 00    	je     4020f0 <__mingw_SEH_error_handler+0x190>
  401fb1:	48 85 c0             	test   %rax,%rax
  401fb4:	0f 84 16 01 00 00    	je     4020d0 <__mingw_SEH_error_handler+0x170>
  401fba:	b9 0b 00 00 00       	mov    $0xb,%ecx
  401fbf:	ff d0                	callq  *%rax
  401fc1:	31 c0                	xor    %eax,%eax
  401fc3:	48 83 c4 28          	add    $0x28,%rsp
  401fc7:	c3                   	retq   
  401fc8:	0f 1f 84 00 00 00 00 	nopl   0x0(%rax,%rax,1)
  401fcf:	00 
  401fd0:	3d 94 00 00 c0       	cmp    $0xc0000094,%eax
  401fd5:	0f 84 c5 00 00 00    	je     4020a0 <__mingw_SEH_error_handler+0x140>
  401fdb:	77 43                	ja     402020 <__mingw_SEH_error_handler+0xc0>
  401fdd:	3d 92 00 00 c0       	cmp    $0xc0000092,%eax
  401fe2:	0f 84 a8 00 00 00    	je     402090 <__mingw_SEH_error_handler+0x130>
  401fe8:	3d 93 00 00 c0       	cmp    $0xc0000093,%eax
  401fed:	75 7f                	jne    40206e <__mingw_SEH_error_handler+0x10e>
  401fef:	31 d2                	xor    %edx,%edx
  401ff1:	b9 08 00 00 00       	mov    $0x8,%ecx
  401ff6:	e8 d5 0e 00 00       	callq  402ed0 <signal>
  401ffb:	48 83 f8 01          	cmp    $0x1,%rax
  401fff:	48 89 c2             	mov    %rax,%rdx
  402002:	74 74                	je     402078 <__mingw_SEH_error_handler+0x118>
  402004:	48 85 d2             	test   %rdx,%rdx
  402007:	b8 01 00 00 00       	mov    $0x1,%eax
  40200c:	74 b5                	je     401fc3 <__mingw_SEH_error_handler+0x63>
  40200e:	b9 08 00 00 00       	mov    $0x8,%ecx
  402013:	ff d2                	callq  *%rdx
  402015:	31 c0                	xor    %eax,%eax
  402017:	48 83 c4 28          	add    $0x28,%rsp
  40201b:	c3                   	retq   
  40201c:	0f 1f 40 00          	nopl   0x0(%rax)
  402020:	3d 95 00 00 c0       	cmp    $0xc0000095,%eax
  402025:	74 69                	je     402090 <__mingw_SEH_error_handler+0x130>
  402027:	3d 96 00 00 c0       	cmp    $0xc0000096,%eax
  40202c:	75 40                	jne    40206e <__mingw_SEH_error_handler+0x10e>
  40202e:	31 d2                	xor    %edx,%edx
  402030:	b9 04 00 00 00       	mov    $0x4,%ecx
  402035:	e8 96 0e 00 00       	callq  402ed0 <signal>
  40203a:	48 83 f8 01          	cmp    $0x1,%rax
  40203e:	0f 84 96 00 00 00    	je     4020da <__mingw_SEH_error_handler+0x17a>
  402044:	48 85 c0             	test   %rax,%rax
  402047:	0f 84 83 00 00 00    	je     4020d0 <__mingw_SEH_error_handler+0x170>
  40204d:	b9 04 00 00 00       	mov    $0x4,%ecx
  402052:	ff d0                	callq  *%rax
  402054:	31 c0                	xor    %eax,%eax
  402056:	e9 68 ff ff ff       	jmpq   401fc3 <__mingw_SEH_error_handler+0x63>
  40205b:	0f 1f 44 00 00       	nopl   0x0(%rax,%rax,1)
  402060:	3d 1d 00 00 c0       	cmp    $0xc000001d,%eax
  402065:	74 c7                	je     40202e <__mingw_SEH_error_handler+0xce>
  402067:	3d 8c 00 00 c0       	cmp    $0xc000008c,%eax
  40206c:	74 22                	je     402090 <__mingw_SEH_error_handler+0x130>
  40206e:	b8 01 00 00 00       	mov    $0x1,%eax
  402073:	48 83 c4 28          	add    $0x28,%rsp
  402077:	c3                   	retq   
  402078:	ba 01 00 00 00       	mov    $0x1,%edx
  40207d:	b9 08 00 00 00       	mov    $0x8,%ecx
  402082:	e8 49 0e 00 00       	callq  402ed0 <signal>
  402087:	e8 34 03 00 00       	callq  4023c0 <_fpreset>
  40208c:	0f 1f 40 00          	nopl   0x0(%rax)
  402090:	31 c0                	xor    %eax,%eax
  402092:	48 83 c4 28          	add    $0x28,%rsp
  402096:	c3                   	retq   
  402097:	66 0f 1f 84 00 00 00 	nopw   0x0(%rax,%rax,1)
  40209e:	00 00 
  4020a0:	31 d2                	xor    %edx,%edx
  4020a2:	b9 08 00 00 00       	mov    $0x8,%ecx
  4020a7:	e8 24 0e 00 00       	callq  402ed0 <signal>
  4020ac:	48 83 f8 01          	cmp    $0x1,%rax
  4020b0:	48 89 c2             	mov    %rax,%rdx
  4020b3:	0f 85 4b ff ff ff    	jne    402004 <__mingw_SEH_error_handler+0xa4>
  4020b9:	ba 01 00 00 00       	mov    $0x1,%edx
  4020be:	b9 08 00 00 00       	mov    $0x8,%ecx
  4020c3:	e8 08 0e 00 00       	callq  402ed0 <signal>
  4020c8:	31 c0                	xor    %eax,%eax
  4020ca:	e9 f4 fe ff ff       	jmpq   401fc3 <__mingw_SEH_error_handler+0x63>
  4020cf:	90                   	nop
  4020d0:	b8 04 00 00 00       	mov    $0x4,%eax
  4020d5:	48 83 c4 28          	add    $0x28,%rsp
  4020d9:	c3                   	retq   
  4020da:	ba 01 00 00 00       	mov    $0x1,%edx
  4020df:	b9 04 00 00 00       	mov    $0x4,%ecx
  4020e4:	e8 e7 0d 00 00       	callq  402ed0 <signal>
  4020e9:	31 c0                	xor    %eax,%eax
  4020eb:	e9 d3 fe ff ff       	jmpq   401fc3 <__mingw_SEH_error_handler+0x63>
  4020f0:	ba 01 00 00 00       	mov    $0x1,%edx
  4020f5:	b9 0b 00 00 00       	mov    $0xb,%ecx
  4020fa:	e8 d1 0d 00 00       	callq  402ed0 <signal>
  4020ff:	31 c0                	xor    %eax,%eax
  402101:	e9 bd fe ff ff       	jmpq   401fc3 <__mingw_SEH_error_handler+0x63>
  402106:	66 2e 0f 1f 84 00 00 	nopw   %cs:0x0(%rax,%rax,1)
  40210d:	00 00 00 

0000000000402110 <__mingw_init_ehandler>:
  402110:	41 54                	push   %r12
  402112:	55                   	push   %rbp
  402113:	57                   	push   %rdi
  402114:	56                   	push   %rsi
  402115:	53                   	push   %rbx
  402116:	48 83 ec 20          	sub    $0x20,%rsp
  40211a:	e8 31 09 00 00       	callq  402a50 <_GetPEImageBase>
  40211f:	48 89 c5             	mov    %rax,%rbp
  402122:	8b 05 60 4f 00 00    	mov    0x4f60(%rip),%eax        # 407088 <was_here.73812>
  402128:	85 c0                	test   %eax,%eax
  40212a:	75 25                	jne    402151 <__mingw_init_ehandler+0x41>
  40212c:	48 85 ed             	test   %rbp,%rbp
  40212f:	74 20                	je     402151 <__mingw_init_ehandler+0x41>
  402131:	48 8d 0d 78 21 00 00 	lea    0x2178(%rip),%rcx        # 4042b0 <.rdata>
  402138:	c7 05 46 4f 00 00 01 	movl   $0x1,0x4f46(%rip)        # 407088 <was_here.73812>
  40213f:	00 00 00 
  402142:	e8 49 07 00 00       	callq  402890 <_FindPESectionByName>
  402147:	48 85 c0             	test   %rax,%rax
  40214a:	74 14                	je     402160 <__mingw_init_ehandler+0x50>
  40214c:	b8 01 00 00 00       	mov    $0x1,%eax
  402151:	48 83 c4 20          	add    $0x20,%rsp
  402155:	5b                   	pop    %rbx
  402156:	5e                   	pop    %rsi
  402157:	5f                   	pop    %rdi
  402158:	5d                   	pop    %rbp
  402159:	41 5c                	pop    %r12
  40215b:	c3                   	retq   
  40215c:	0f 1f 40 00          	nopl   0x0(%rax)
  402160:	48 8d 1d 59 50 00 00 	lea    0x5059(%rip),%rbx        # 4071c0 <emu_pdata>
  402167:	b9 30 00 00 00       	mov    $0x30,%ecx
  40216c:	48 8d 15 4d 4f 00 00 	lea    0x4f4d(%rip),%rdx        # 4070c0 <emu_xdata>
  402173:	4c 8d 25 e6 fd ff ff 	lea    -0x21a(%rip),%r12        # 401f60 <__mingw_SEH_error_handler>
  40217a:	31 f6                	xor    %esi,%esi
  40217c:	48 89 df             	mov    %rbx,%rdi
  40217f:	f3 48 ab             	rep stos %rax,%es:(%rdi)
  402182:	48 89 d7             	mov    %rdx,%rdi
  402185:	49 29 ec             	sub    %rbp,%r12
  402188:	b1 20                	mov    $0x20,%cl
  40218a:	f3 48 ab             	rep stos %rax,%es:(%rdi)
  40218d:	48 89 d7             	mov    %rdx,%rdi
  402190:	eb 2e                	jmp    4021c0 <__mingw_init_ehandler+0xb0>
  402192:	c6 07 09             	movb   $0x9,(%rdi)
  402195:	44 89 67 04          	mov    %r12d,0x4(%rdi)
  402199:	48 83 c6 01          	add    $0x1,%rsi
  40219d:	8b 50 0c             	mov    0xc(%rax),%edx
  4021a0:	48 83 c3 0c          	add    $0xc,%rbx
  4021a4:	89 53 f4             	mov    %edx,-0xc(%rbx)
  4021a7:	03 50 08             	add    0x8(%rax),%edx
  4021aa:	48 89 f8             	mov    %rdi,%rax
  4021ad:	48 29 e8             	sub    %rbp,%rax
  4021b0:	48 83 c7 08          	add    $0x8,%rdi
  4021b4:	89 43 fc             	mov    %eax,-0x4(%rbx)
  4021b7:	89 53 f8             	mov    %edx,-0x8(%rbx)
  4021ba:	48 83 fe 20          	cmp    $0x20,%rsi
  4021be:	74 35                	je     4021f5 <__mingw_init_ehandler+0xe5>
  4021c0:	48 89 f1             	mov    %rsi,%rcx
  4021c3:	e8 f8 07 00 00       	callq  4029c0 <_FindPESectionExec>
  4021c8:	48 85 c0             	test   %rax,%rax
  4021cb:	75 c5                	jne    402192 <__mingw_init_ehandler+0x82>
  4021cd:	48 85 f6             	test   %rsi,%rsi
  4021d0:	0f 84 76 ff ff ff    	je     40214c <__mingw_init_ehandler+0x3c>
  4021d6:	89 f2                	mov    %esi,%edx
  4021d8:	0f 1f 84 00 00 00 00 	nopl   0x0(%rax,%rax,1)
  4021df:	00 
  4021e0:	49 89 e8             	mov    %rbp,%r8
  4021e3:	48 8d 0d d6 4f 00 00 	lea    0x4fd6(%rip),%rcx        # 4071c0 <emu_pdata>
  4021ea:	ff 15 6c 60 00 00    	callq  *0x606c(%rip)        # 40825c <__imp_RtlAddFunctionTable>
  4021f0:	e9 57 ff ff ff       	jmpq   40214c <__mingw_init_ehandler+0x3c>
  4021f5:	ba 20 00 00 00       	mov    $0x20,%edx
  4021fa:	eb e4                	jmp    4021e0 <__mingw_init_ehandler+0xd0>
  4021fc:	0f 1f 40 00          	nopl   0x0(%rax)

0000000000402200 <_gnu_exception_handler>:
  402200:	53                   	push   %rbx
  402201:	48 83 ec 20          	sub    $0x20,%rsp
  402205:	48 8b 11             	mov    (%rcx),%rdx
  402208:	8b 02                	mov    (%rdx),%eax
  40220a:	41 89 c0             	mov    %eax,%r8d
  40220d:	41 81 e0 ff ff ff 20 	and    $0x20ffffff,%r8d
  402214:	41 81 f8 43 43 47 20 	cmp    $0x20474343,%r8d
  40221b:	0f 84 ff 00 00 00    	je     402320 <_gnu_exception_handler+0x120>
  402221:	3d 91 00 00 c0       	cmp    $0xc0000091,%eax
  402226:	48 89 cb             	mov    %rcx,%rbx
  402229:	0f 87 81 00 00 00    	ja     4022b0 <_gnu_exception_handler+0xb0>
  40222f:	3d 8d 00 00 c0       	cmp    $0xc000008d,%eax
  402234:	0f 83 8d 00 00 00    	jae    4022c7 <_gnu_exception_handler+0xc7>
  40223a:	3d 08 00 00 c0       	cmp    $0xc0000008,%eax
  40223f:	74 32                	je     402273 <_gnu_exception_handler+0x73>
  402241:	77 3d                	ja     402280 <_gnu_exception_handler+0x80>
  402243:	3d 02 00 00 80       	cmp    $0x80000002,%eax
  402248:	74 29                	je     402273 <_gnu_exception_handler+0x73>
  40224a:	3d 05 00 00 c0       	cmp    $0xc0000005,%eax
  40224f:	75 41                	jne    402292 <_gnu_exception_handler+0x92>
  402251:	31 d2                	xor    %edx,%edx
  402253:	b9 0b 00 00 00       	mov    $0xb,%ecx
  402258:	e8 73 0c 00 00       	callq  402ed0 <signal>
  40225d:	48 83 f8 01          	cmp    $0x1,%rax
  402261:	0f 84 29 01 00 00    	je     402390 <_gnu_exception_handler+0x190>
  402267:	48 85 c0             	test   %rax,%rax
  40226a:	74 26                	je     402292 <_gnu_exception_handler+0x92>
  40226c:	b9 0b 00 00 00       	mov    $0xb,%ecx
  402271:	ff d0                	callq  *%rax
  402273:	b8 ff ff ff ff       	mov    $0xffffffff,%eax
  402278:	48 83 c4 20          	add    $0x20,%rsp
  40227c:	5b                   	pop    %rbx
  40227d:	c3                   	retq   
  40227e:	66 90                	xchg   %ax,%ax
  402280:	3d 1d 00 00 c0       	cmp    $0xc000001d,%eax
  402285:	0f 84 bb 00 00 00    	je     402346 <_gnu_exception_handler+0x146>
  40228b:	3d 8c 00 00 c0       	cmp    $0xc000008c,%eax
  402290:	74 e1                	je     402273 <_gnu_exception_handler+0x73>
  402292:	48 8b 05 e7 4d 00 00 	mov    0x4de7(%rip),%rax        # 407080 <__mingw_oldexcpt_handler>
  402299:	48 85 c0             	test   %rax,%rax
  40229c:	74 da                	je     402278 <_gnu_exception_handler+0x78>
  40229e:	48 89 d9             	mov    %rbx,%rcx
  4022a1:	48 83 c4 20          	add    $0x20,%rsp
  4022a5:	5b                   	pop    %rbx
  4022a6:	48 ff e0             	rex.W jmpq *%rax
  4022a9:	0f 1f 80 00 00 00 00 	nopl   0x0(%rax)
  4022b0:	3d 94 00 00 c0       	cmp    $0xc0000094,%eax
  4022b5:	74 3b                	je     4022f2 <_gnu_exception_handler+0xf2>
  4022b7:	77 77                	ja     402330 <_gnu_exception_handler+0x130>
  4022b9:	3d 92 00 00 c0       	cmp    $0xc0000092,%eax
  4022be:	74 b3                	je     402273 <_gnu_exception_handler+0x73>
  4022c0:	3d 93 00 00 c0       	cmp    $0xc0000093,%eax
  4022c5:	75 cb                	jne    402292 <_gnu_exception_handler+0x92>
  4022c7:	31 d2                	xor    %edx,%edx
  4022c9:	b9 08 00 00 00       	mov    $0x8,%ecx
  4022ce:	e8 fd 0b 00 00       	callq  402ed0 <signal>
  4022d3:	48 83 f8 01          	cmp    $0x1,%rax
  4022d7:	75 2b                	jne    402304 <_gnu_exception_handler+0x104>
  4022d9:	ba 01 00 00 00       	mov    $0x1,%edx
  4022de:	b9 08 00 00 00       	mov    $0x8,%ecx
  4022e3:	e8 e8 0b 00 00       	callq  402ed0 <signal>
  4022e8:	e8 d3 00 00 00       	callq  4023c0 <_fpreset>
  4022ed:	e9 81 ff ff ff       	jmpq   402273 <_gnu_exception_handler+0x73>
  4022f2:	31 d2                	xor    %edx,%edx
  4022f4:	b9 08 00 00 00       	mov    $0x8,%ecx
  4022f9:	e8 d2 0b 00 00       	callq  402ed0 <signal>
  4022fe:	48 83 f8 01          	cmp    $0x1,%rax
  402302:	74 6e                	je     402372 <_gnu_exception_handler+0x172>
  402304:	48 85 c0             	test   %rax,%rax
  402307:	74 89                	je     402292 <_gnu_exception_handler+0x92>
  402309:	b9 08 00 00 00       	mov    $0x8,%ecx
  40230e:	ff d0                	callq  *%rax
  402310:	b8 ff ff ff ff       	mov    $0xffffffff,%eax
  402315:	e9 5e ff ff ff       	jmpq   402278 <_gnu_exception_handler+0x78>
  40231a:	66 0f 1f 44 00 00    	nopw   0x0(%rax,%rax,1)
  402320:	f6 42 04 01          	testb  $0x1,0x4(%rdx)
  402324:	0f 85 f7 fe ff ff    	jne    402221 <_gnu_exception_handler+0x21>
  40232a:	e9 44 ff ff ff       	jmpq   402273 <_gnu_exception_handler+0x73>
  40232f:	90                   	nop
  402330:	3d 95 00 00 c0       	cmp    $0xc0000095,%eax
  402335:	0f 84 38 ff ff ff    	je     402273 <_gnu_exception_handler+0x73>
  40233b:	3d 96 00 00 c0       	cmp    $0xc0000096,%eax
  402340:	0f 85 4c ff ff ff    	jne    402292 <_gnu_exception_handler+0x92>
  402346:	31 d2                	xor    %edx,%edx
  402348:	b9 04 00 00 00       	mov    $0x4,%ecx
  40234d:	e8 7e 0b 00 00       	callq  402ed0 <signal>
  402352:	48 83 f8 01          	cmp    $0x1,%rax
  402356:	74 4c                	je     4023a4 <_gnu_exception_handler+0x1a4>
  402358:	48 85 c0             	test   %rax,%rax
  40235b:	0f 84 31 ff ff ff    	je     402292 <_gnu_exception_handler+0x92>
  402361:	b9 04 00 00 00       	mov    $0x4,%ecx
  402366:	ff d0                	callq  *%rax
  402368:	b8 ff ff ff ff       	mov    $0xffffffff,%eax
  40236d:	e9 06 ff ff ff       	jmpq   402278 <_gnu_exception_handler+0x78>
  402372:	ba 01 00 00 00       	mov    $0x1,%edx
  402377:	b9 08 00 00 00       	mov    $0x8,%ecx
  40237c:	e8 4f 0b 00 00       	callq  402ed0 <signal>
  402381:	e9 ed fe ff ff       	jmpq   402273 <_gnu_exception_handler+0x73>
  402386:	66 2e 0f 1f 84 00 00 	nopw   %cs:0x0(%rax,%rax,1)
  40238d:	00 00 00 
  402390:	ba 01 00 00 00       	mov    $0x1,%edx
  402395:	b9 0b 00 00 00       	mov    $0xb,%ecx
  40239a:	e8 31 0b 00 00       	callq  402ed0 <signal>
  40239f:	e9 cf fe ff ff       	jmpq   402273 <_gnu_exception_handler+0x73>
  4023a4:	ba 01 00 00 00       	mov    $0x1,%edx
  4023a9:	b9 04 00 00 00       	mov    $0x4,%ecx
  4023ae:	e8 1d 0b 00 00       	callq  402ed0 <signal>
  4023b3:	e9 bb fe ff ff       	jmpq   402273 <_gnu_exception_handler+0x73>
  4023b8:	90                   	nop
  4023b9:	90                   	nop
  4023ba:	90                   	nop
  4023bb:	90                   	nop
  4023bc:	90                   	nop
  4023bd:	90                   	nop
  4023be:	90                   	nop
  4023bf:	90                   	nop

00000000004023c0 <_fpreset>:
  4023c0:	db e3                	fninit 
  4023c2:	c3                   	retq   
  4023c3:	90                   	nop
  4023c4:	90                   	nop
  4023c5:	90                   	nop
  4023c6:	90                   	nop
  4023c7:	90                   	nop
  4023c8:	90                   	nop
  4023c9:	90                   	nop
  4023ca:	90                   	nop
  4023cb:	90                   	nop
  4023cc:	90                   	nop
  4023cd:	90                   	nop
  4023ce:	90                   	nop
  4023cf:	90                   	nop

00000000004023d0 <__do_global_dtors>:
  4023d0:	48 83 ec 28          	sub    $0x28,%rsp
  4023d4:	48 8b 05 35 0c 00 00 	mov    0xc35(%rip),%rax        # 403010 <p.73208>
  4023db:	48 8b 00             	mov    (%rax),%rax
  4023de:	48 85 c0             	test   %rax,%rax
  4023e1:	74 1d                	je     402400 <__do_global_dtors+0x30>
  4023e3:	ff d0                	callq  *%rax
  4023e5:	48 8b 05 24 0c 00 00 	mov    0xc24(%rip),%rax        # 403010 <p.73208>
  4023ec:	48 8d 50 08          	lea    0x8(%rax),%rdx
  4023f0:	48 8b 40 08          	mov    0x8(%rax),%rax
  4023f4:	48 89 15 15 0c 00 00 	mov    %rdx,0xc15(%rip)        # 403010 <p.73208>
  4023fb:	48 85 c0             	test   %rax,%rax
  4023fe:	75 e3                	jne    4023e3 <__do_global_dtors+0x13>
  402400:	48 83 c4 28          	add    $0x28,%rsp
  402404:	c3                   	retq   
  402405:	66 66 2e 0f 1f 84 00 	data16 nopw %cs:0x0(%rax,%rax,1)
  40240c:	00 00 00 00 

0000000000402410 <__do_global_ctors>:
  402410:	56                   	push   %rsi
  402411:	53                   	push   %rbx
  402412:	48 83 ec 28          	sub    $0x28,%rsp
  402416:	48 8b 35 e3 1e 00 00 	mov    0x1ee3(%rip),%rsi        # 404300 <.refptr.__CTOR_LIST__>
  40241d:	48 8b 06             	mov    (%rsi),%rax
  402420:	83 f8 ff             	cmp    $0xffffffff,%eax
  402423:	89 c3                	mov    %eax,%ebx
  402425:	74 29                	je     402450 <__do_global_ctors+0x40>
  402427:	85 db                	test   %ebx,%ebx
  402429:	74 0f                	je     40243a <__do_global_ctors+0x2a>
  40242b:	0f 1f 44 00 00       	nopl   0x0(%rax,%rax,1)
  402430:	89 d8                	mov    %ebx,%eax
  402432:	ff 14 c6             	callq  *(%rsi,%rax,8)
  402435:	83 eb 01             	sub    $0x1,%ebx
  402438:	75 f6                	jne    402430 <__do_global_ctors+0x20>
  40243a:	48 8d 0d 8f ff ff ff 	lea    -0x71(%rip),%rcx        # 4023d0 <__do_global_dtors>
  402441:	48 83 c4 28          	add    $0x28,%rsp
  402445:	5b                   	pop    %rbx
  402446:	5e                   	pop    %rsi
  402447:	e9 84 03 00 00       	jmpq   4027d0 <atexit>
  40244c:	0f 1f 40 00          	nopl   0x0(%rax)
  402450:	31 db                	xor    %ebx,%ebx
  402452:	eb 02                	jmp    402456 <__do_global_ctors+0x46>
  402454:	89 c3                	mov    %eax,%ebx
  402456:	8d 53 01             	lea    0x1(%rbx),%edx
  402459:	48 83 3c d6 00       	cmpq   $0x0,(%rsi,%rdx,8)
  40245e:	48 89 d0             	mov    %rdx,%rax
  402461:	75 f1                	jne    402454 <__do_global_ctors+0x44>
  402463:	eb c2                	jmp    402427 <__do_global_ctors+0x17>
  402465:	66 66 2e 0f 1f 84 00 	data16 nopw %cs:0x0(%rax,%rax,1)
  40246c:	00 00 00 00 

0000000000402470 <__main>:
  402470:	8b 05 ca 4e 00 00    	mov    0x4eca(%rip),%eax        # 407340 <initialized>
  402476:	85 c0                	test   %eax,%eax
  402478:	74 06                	je     402480 <__main+0x10>
  40247a:	f3 c3                	repz retq 
  40247c:	0f 1f 40 00          	nopl   0x0(%rax)
  402480:	c7 05 b6 4e 00 00 01 	movl   $0x1,0x4eb6(%rip)        # 407340 <initialized>
  402487:	00 00 00 
  40248a:	eb 84                	jmp    402410 <__do_global_ctors>
  40248c:	90                   	nop
  40248d:	90                   	nop
  40248e:	90                   	nop
  40248f:	90                   	nop

0000000000402490 <__security_init_cookie>:
  402490:	41 54                	push   %r12
  402492:	55                   	push   %rbp
  402493:	57                   	push   %rdi
  402494:	56                   	push   %rsi
  402495:	53                   	push   %rbx
  402496:	48 83 ec 40          	sub    $0x40,%rsp
  40249a:	48 8b 1d cf 0b 00 00 	mov    0xbcf(%rip),%rbx        # 403070 <__security_cookie>
  4024a1:	48 b8 32 a2 df 2d 99 	movabs $0x2b992ddfa232,%rax
  4024a8:	2b 00 00 
  4024ab:	48 c7 44 24 20 00 00 	movq   $0x0,0x20(%rsp)
  4024b2:	00 00 
  4024b4:	48 39 c3             	cmp    %rax,%rbx
  4024b7:	74 17                	je     4024d0 <__security_init_cookie+0x40>
  4024b9:	48 f7 d3             	not    %rbx
  4024bc:	48 89 1d bd 0b 00 00 	mov    %rbx,0xbbd(%rip)        # 403080 <__security_cookie_complement>
  4024c3:	48 83 c4 40          	add    $0x40,%rsp
  4024c7:	5b                   	pop    %rbx
  4024c8:	5e                   	pop    %rsi
  4024c9:	5f                   	pop    %rdi
  4024ca:	5d                   	pop    %rbp
  4024cb:	41 5c                	pop    %r12
  4024cd:	c3                   	retq   
  4024ce:	66 90                	xchg   %ax,%ax
  4024d0:	48 8d 4c 24 20       	lea    0x20(%rsp),%rcx
  4024d5:	ff 15 59 5d 00 00    	callq  *0x5d59(%rip)        # 408234 <__imp_GetSystemTimeAsFileTime>
  4024db:	4c 8b 64 24 20       	mov    0x20(%rsp),%r12
  4024e0:	ff 15 2e 5d 00 00    	callq  *0x5d2e(%rip)        # 408214 <__imp_GetCurrentProcessId>
  4024e6:	89 c5                	mov    %eax,%ebp
  4024e8:	ff 15 2e 5d 00 00    	callq  *0x5d2e(%rip)        # 40821c <__imp_GetCurrentThreadId>
  4024ee:	89 c7                	mov    %eax,%edi
  4024f0:	ff 15 46 5d 00 00    	callq  *0x5d46(%rip)        # 40823c <__imp_GetTickCount>
  4024f6:	48 8d 4c 24 30       	lea    0x30(%rsp),%rcx
  4024fb:	89 c6                	mov    %eax,%esi
  4024fd:	ff 15 51 5d 00 00    	callq  *0x5d51(%rip)        # 408254 <__imp_QueryPerformanceCounter>
  402503:	4c 33 64 24 30       	xor    0x30(%rsp),%r12
  402508:	89 fa                	mov    %edi,%edx
  40250a:	48 b8 ff ff ff ff ff 	movabs $0xffffffffffff,%rax
  402511:	ff 00 00 
  402514:	4c 31 e5             	xor    %r12,%rbp
  402517:	48 89 ef             	mov    %rbp,%rdi
  40251a:	48 31 d7             	xor    %rdx,%rdi
  40251d:	89 f2                	mov    %esi,%edx
  40251f:	48 31 d7             	xor    %rdx,%rdi
  402522:	48 89 fe             	mov    %rdi,%rsi
  402525:	48 21 c6             	and    %rax,%rsi
  402528:	48 39 de             	cmp    %rbx,%rsi
  40252b:	74 23                	je     402550 <__security_init_cookie+0xc0>
  40252d:	48 89 f0             	mov    %rsi,%rax
  402530:	48 f7 d0             	not    %rax
  402533:	48 89 35 36 0b 00 00 	mov    %rsi,0xb36(%rip)        # 403070 <__security_cookie>
  40253a:	48 89 05 3f 0b 00 00 	mov    %rax,0xb3f(%rip)        # 403080 <__security_cookie_complement>
  402541:	48 83 c4 40          	add    $0x40,%rsp
  402545:	5b                   	pop    %rbx
  402546:	5e                   	pop    %rsi
  402547:	5f                   	pop    %rdi
  402548:	5d                   	pop    %rbp
  402549:	41 5c                	pop    %r12
  40254b:	c3                   	retq   
  40254c:	0f 1f 40 00          	nopl   0x0(%rax)
  402550:	48 b8 cc 5d 20 d2 66 	movabs $0xffffd466d2205dcc,%rax
  402557:	d4 ff ff 
  40255a:	48 be 33 a2 df 2d 99 	movabs $0x2b992ddfa233,%rsi
  402561:	2b 00 00 
  402564:	eb cd                	jmp    402533 <__security_init_cookie+0xa3>
  402566:	66 2e 0f 1f 84 00 00 	nopw   %cs:0x0(%rax,%rax,1)
  40256d:	00 00 00 

0000000000402570 <__report_gsfailure>:
  402570:	55                   	push   %rbp
  402571:	56                   	push   %rsi
  402572:	53                   	push   %rbx
  402573:	48 89 e5             	mov    %rsp,%rbp
  402576:	48 83 ec 70          	sub    $0x70,%rsp
  40257a:	48 89 ce             	mov    %rcx,%rsi
  40257d:	48 8d 0d fc 4d 00 00 	lea    0x4dfc(%rip),%rcx        # 407380 <GS_ContextRecord>
  402584:	ff 15 da 5c 00 00    	callq  *0x5cda(%rip)        # 408264 <__imp_RtlCaptureContext>
  40258a:	48 8b 1d e7 4e 00 00 	mov    0x4ee7(%rip),%rbx        # 407478 <GS_ContextRecord+0xf8>
  402591:	45 31 c0             	xor    %r8d,%r8d
  402594:	48 8d 55 d8          	lea    -0x28(%rbp),%rdx
  402598:	48 89 d9             	mov    %rbx,%rcx
  40259b:	ff 15 cb 5c 00 00    	callq  *0x5ccb(%rip)        # 40826c <__imp_RtlLookupFunctionEntry>
  4025a1:	48 85 c0             	test   %rax,%rax
  4025a4:	49 89 c1             	mov    %rax,%r9
  4025a7:	0f 84 a3 00 00 00    	je     402650 <__report_gsfailure+0xe0>
  4025ad:	48 8d 45 e0          	lea    -0x20(%rbp),%rax
  4025b1:	48 c7 44 24 38 00 00 	movq   $0x0,0x38(%rsp)
  4025b8:	00 00 
  4025ba:	49 89 d8             	mov    %rbx,%r8
  4025bd:	48 8b 55 d8          	mov    -0x28(%rbp),%rdx
  4025c1:	31 c9                	xor    %ecx,%ecx
  4025c3:	48 89 44 24 30       	mov    %rax,0x30(%rsp)
  4025c8:	48 8d 45 e8          	lea    -0x18(%rbp),%rax
  4025cc:	48 89 44 24 28       	mov    %rax,0x28(%rsp)
  4025d1:	48 8d 05 a8 4d 00 00 	lea    0x4da8(%rip),%rax        # 407380 <GS_ContextRecord>
  4025d8:	48 89 44 24 20       	mov    %rax,0x20(%rsp)
  4025dd:	ff 15 91 5c 00 00    	callq  *0x5c91(%rip)        # 408274 <__imp_RtlVirtualUnwind>
  4025e3:	48 8b 05 8e 4e 00 00 	mov    0x4e8e(%rip),%rax        # 407478 <GS_ContextRecord+0xf8>
  4025ea:	31 c9                	xor    %ecx,%ecx
  4025ec:	48 89 35 0d 4e 00 00 	mov    %rsi,0x4e0d(%rip)        # 407400 <GS_ContextRecord+0x80>
  4025f3:	c7 05 83 52 00 00 09 	movl   $0xc0000409,0x5283(%rip)        # 407880 <GS_ExceptionRecord>
  4025fa:	04 00 c0 
  4025fd:	c7 05 7d 52 00 00 01 	movl   $0x1,0x527d(%rip)        # 407884 <GS_ExceptionRecord+0x4>
  402604:	00 00 00 
  402607:	48 89 05 82 52 00 00 	mov    %rax,0x5282(%rip)        # 407890 <GS_ExceptionRecord+0x10>
  40260e:	48 8b 05 5b 0a 00 00 	mov    0xa5b(%rip),%rax        # 403070 <__security_cookie>
  402615:	48 89 45 f0          	mov    %rax,-0x10(%rbp)
  402619:	48 8b 05 60 0a 00 00 	mov    0xa60(%rip),%rax        # 403080 <__security_cookie_complement>
  402620:	48 89 45 f8          	mov    %rax,-0x8(%rbp)
  402624:	ff 15 52 5c 00 00    	callq  *0x5c52(%rip)        # 40827c <__imp_SetUnhandledExceptionFilter>
  40262a:	48 8d 0d 8f 1c 00 00 	lea    0x1c8f(%rip),%rcx        # 4042c0 <GS_ExceptionPointers>
  402631:	ff 15 65 5c 00 00    	callq  *0x5c65(%rip)        # 40829c <__imp_UnhandledExceptionFilter>
  402637:	ff 15 cf 5b 00 00    	callq  *0x5bcf(%rip)        # 40820c <__imp_GetCurrentProcess>
  40263d:	ba 09 04 00 c0       	mov    $0xc0000409,%edx
  402642:	48 89 c1             	mov    %rax,%rcx
  402645:	ff 15 41 5c 00 00    	callq  *0x5c41(%rip)        # 40828c <__imp_TerminateProcess>
  40264b:	e8 78 08 00 00       	callq  402ec8 <abort>
  402650:	48 8b 45 18          	mov    0x18(%rbp),%rax
  402654:	48 89 05 1d 4e 00 00 	mov    %rax,0x4e1d(%rip)        # 407478 <GS_ContextRecord+0xf8>
  40265b:	48 8d 45 08          	lea    0x8(%rbp),%rax
  40265f:	48 89 05 b2 4d 00 00 	mov    %rax,0x4db2(%rip)        # 407418 <GS_ContextRecord+0x98>
  402666:	e9 78 ff ff ff       	jmpq   4025e3 <__report_gsfailure+0x73>
  40266b:	90                   	nop
  40266c:	90                   	nop
  40266d:	90                   	nop
  40266e:	90                   	nop
  40266f:	90                   	nop

0000000000402670 <__dyn_tls_dtor>:
  402670:	48 83 ec 28          	sub    $0x28,%rsp
  402674:	85 d2                	test   %edx,%edx
  402676:	74 18                	je     402690 <__dyn_tls_dtor+0x20>
  402678:	83 fa 03             	cmp    $0x3,%edx
  40267b:	74 13                	je     402690 <__dyn_tls_dtor+0x20>
  40267d:	b8 01 00 00 00       	mov    $0x1,%eax
  402682:	48 83 c4 28          	add    $0x28,%rsp
  402686:	c3                   	retq   
  402687:	66 0f 1f 84 00 00 00 	nopw   0x0(%rax,%rax,1)
  40268e:	00 00 
  402690:	e8 9b 06 00 00       	callq  402d30 <__mingw_TLScallback>
  402695:	b8 01 00 00 00       	mov    $0x1,%eax
  40269a:	48 83 c4 28          	add    $0x28,%rsp
  40269e:	c3                   	retq   
  40269f:	90                   	nop

00000000004026a0 <__dyn_tls_init>:
  4026a0:	56                   	push   %rsi
  4026a1:	53                   	push   %rbx
  4026a2:	48 83 ec 28          	sub    $0x28,%rsp
  4026a6:	48 8b 05 33 1c 00 00 	mov    0x1c33(%rip),%rax        # 4042e0 <.refptr._CRT_MT>
  4026ad:	83 38 02             	cmpl   $0x2,(%rax)
  4026b0:	74 06                	je     4026b8 <__dyn_tls_init+0x18>
  4026b2:	c7 00 02 00 00 00    	movl   $0x2,(%rax)
  4026b8:	83 fa 02             	cmp    $0x2,%edx
  4026bb:	74 13                	je     4026d0 <__dyn_tls_init+0x30>
  4026bd:	83 fa 01             	cmp    $0x1,%edx
  4026c0:	74 40                	je     402702 <__dyn_tls_init+0x62>
  4026c2:	b8 01 00 00 00       	mov    $0x1,%eax
  4026c7:	48 83 c4 28          	add    $0x28,%rsp
  4026cb:	5b                   	pop    %rbx
  4026cc:	5e                   	pop    %rsi
  4026cd:	c3                   	retq   
  4026ce:	66 90                	xchg   %ax,%ax
  4026d0:	48 8d 1d 89 69 00 00 	lea    0x6989(%rip),%rbx        # 409060 <__xd_z>
  4026d7:	48 8d 35 82 69 00 00 	lea    0x6982(%rip),%rsi        # 409060 <__xd_z>
  4026de:	48 39 f3             	cmp    %rsi,%rbx
  4026e1:	74 df                	je     4026c2 <__dyn_tls_init+0x22>
  4026e3:	48 8b 03             	mov    (%rbx),%rax
  4026e6:	48 85 c0             	test   %rax,%rax
  4026e9:	74 02                	je     4026ed <__dyn_tls_init+0x4d>
  4026eb:	ff d0                	callq  *%rax
  4026ed:	48 83 c3 08          	add    $0x8,%rbx
  4026f1:	48 39 f3             	cmp    %rsi,%rbx
  4026f4:	75 ed                	jne    4026e3 <__dyn_tls_init+0x43>
  4026f6:	b8 01 00 00 00       	mov    $0x1,%eax
  4026fb:	48 83 c4 28          	add    $0x28,%rsp
  4026ff:	5b                   	pop    %rbx
  402700:	5e                   	pop    %rsi
  402701:	c3                   	retq   
  402702:	e8 29 06 00 00       	callq  402d30 <__mingw_TLScallback>
  402707:	eb b9                	jmp    4026c2 <__dyn_tls_init+0x22>
  402709:	0f 1f 80 00 00 00 00 	nopl   0x0(%rax)

0000000000402710 <__tlregdtor>:
  402710:	31 c0                	xor    %eax,%eax
  402712:	c3                   	retq   
  402713:	90                   	nop
  402714:	90                   	nop
  402715:	90                   	nop
  402716:	90                   	nop
  402717:	90                   	nop
  402718:	90                   	nop
  402719:	90                   	nop
  40271a:	90                   	nop
  40271b:	90                   	nop
  40271c:	90                   	nop
  40271d:	90                   	nop
  40271e:	90                   	nop
  40271f:	90                   	nop

0000000000402720 <mingw_onexit>:
  402720:	53                   	push   %rbx
  402721:	48 83 ec 30          	sub    $0x30,%rsp
  402725:	48 89 cb             	mov    %rcx,%rbx
  402728:	48 8b 0d 01 53 00 00 	mov    0x5301(%rip),%rcx        # 407a30 <__onexitbegin>
  40272f:	e8 bc f1 ff ff       	callq  4018f0 <_decode_pointer>
  402734:	48 83 f8 ff          	cmp    $0xffffffffffffffff,%rax
  402738:	48 89 44 24 20       	mov    %rax,0x20(%rsp)
  40273d:	74 76                	je     4027b5 <mingw_onexit+0x95>
  40273f:	b9 08 00 00 00       	mov    $0x8,%ecx
  402744:	e8 8f 07 00 00       	callq  402ed8 <_lock>
  402749:	48 8b 0d e0 52 00 00 	mov    0x52e0(%rip),%rcx        # 407a30 <__onexitbegin>
  402750:	e8 9b f1 ff ff       	callq  4018f0 <_decode_pointer>
  402755:	48 8b 0d dc 52 00 00 	mov    0x52dc(%rip),%rcx        # 407a38 <__onexitend>
  40275c:	48 89 44 24 20       	mov    %rax,0x20(%rsp)
  402761:	e8 8a f1 ff ff       	callq  4018f0 <_decode_pointer>
  402766:	48 8d 54 24 20       	lea    0x20(%rsp),%rdx
  40276b:	4c 8d 44 24 28       	lea    0x28(%rsp),%r8
  402770:	48 89 d9             	mov    %rbx,%rcx
  402773:	48 89 44 24 28       	mov    %rax,0x28(%rsp)
  402778:	e8 63 07 00 00       	callq  402ee0 <__dllonexit>
  40277d:	48 8b 4c 24 20       	mov    0x20(%rsp),%rcx
  402782:	48 89 c3             	mov    %rax,%rbx
  402785:	e8 76 f1 ff ff       	callq  401900 <_encode_pointer>
  40278a:	48 8b 4c 24 28       	mov    0x28(%rsp),%rcx
  40278f:	48 89 05 9a 52 00 00 	mov    %rax,0x529a(%rip)        # 407a30 <__onexitbegin>
  402796:	e8 65 f1 ff ff       	callq  401900 <_encode_pointer>
  40279b:	b9 08 00 00 00       	mov    $0x8,%ecx
  4027a0:	48 89 05 91 52 00 00 	mov    %rax,0x5291(%rip)        # 407a38 <__onexitend>
  4027a7:	e8 3c 07 00 00       	callq  402ee8 <_unlock>
  4027ac:	48 89 d8             	mov    %rbx,%rax
  4027af:	48 83 c4 30          	add    $0x30,%rsp
  4027b3:	5b                   	pop    %rbx
  4027b4:	c3                   	retq   
  4027b5:	48 8b 05 c4 1b 00 00 	mov    0x1bc4(%rip),%rax        # 404380 <.refptr.__imp__onexit>
  4027bc:	48 89 d9             	mov    %rbx,%rcx
  4027bf:	ff 10                	callq  *(%rax)
  4027c1:	48 83 c4 30          	add    $0x30,%rsp
  4027c5:	5b                   	pop    %rbx
  4027c6:	c3                   	retq   
  4027c7:	66 0f 1f 84 00 00 00 	nopw   0x0(%rax,%rax,1)
  4027ce:	00 00 

00000000004027d0 <atexit>:
  4027d0:	48 83 ec 28          	sub    $0x28,%rsp
  4027d4:	e8 47 ff ff ff       	callq  402720 <mingw_onexit>
  4027d9:	48 85 c0             	test   %rax,%rax
  4027dc:	0f 94 c0             	sete   %al
  4027df:	0f b6 c0             	movzbl %al,%eax
  4027e2:	f7 d8                	neg    %eax
  4027e4:	48 83 c4 28          	add    $0x28,%rsp
  4027e8:	c3                   	retq   
  4027e9:	90                   	nop
  4027ea:	90                   	nop
  4027eb:	90                   	nop
  4027ec:	90                   	nop
  4027ed:	90                   	nop
  4027ee:	90                   	nop
  4027ef:	90                   	nop

00000000004027f0 <my_lconv_init>:
  4027f0:	48 8b 05 ed 5a 00 00 	mov    0x5aed(%rip),%rax        # 4082e4 <__imp___lconv_init>
  4027f7:	48 ff e0             	rex.W jmpq *%rax
  4027fa:	90                   	nop
  4027fb:	90                   	nop
  4027fc:	90                   	nop
  4027fd:	90                   	nop
  4027fe:	90                   	nop
  4027ff:	90                   	nop

0000000000402800 <_ValidateImageBase.part.0>:
  402800:	48 63 41 3c          	movslq 0x3c(%rcx),%rax
  402804:	48 01 c1             	add    %rax,%rcx
  402807:	31 c0                	xor    %eax,%eax
  402809:	81 39 50 45 00 00    	cmpl   $0x4550,(%rcx)
  40280f:	74 02                	je     402813 <_ValidateImageBase.part.0+0x13>
  402811:	f3 c3                	repz retq 
  402813:	31 c0                	xor    %eax,%eax
  402815:	66 81 79 18 0b 02    	cmpw   $0x20b,0x18(%rcx)
  40281b:	0f 94 c0             	sete   %al
  40281e:	c3                   	retq   
  40281f:	90                   	nop

0000000000402820 <_ValidateImageBase>:
  402820:	66 81 39 4d 5a       	cmpw   $0x5a4d,(%rcx)
  402825:	74 09                	je     402830 <_ValidateImageBase+0x10>
  402827:	31 c0                	xor    %eax,%eax
  402829:	c3                   	retq   
  40282a:	66 0f 1f 44 00 00    	nopw   0x0(%rax,%rax,1)
  402830:	eb ce                	jmp    402800 <_ValidateImageBase.part.0>
  402832:	66 66 66 66 66 2e 0f 	data16 data16 data16 data16 nopw %cs:0x0(%rax,%rax,1)
  402839:	1f 84 00 00 00 00 00 

0000000000402840 <_FindPESection>:
  402840:	48 63 41 3c          	movslq 0x3c(%rcx),%rax
  402844:	48 01 c1             	add    %rax,%rcx
  402847:	0f b7 41 14          	movzwl 0x14(%rcx),%eax
  40284b:	48 8d 44 01 18       	lea    0x18(%rcx,%rax,1),%rax
  402850:	0f b7 49 06          	movzwl 0x6(%rcx),%ecx
  402854:	85 c9                	test   %ecx,%ecx
  402856:	74 29                	je     402881 <_FindPESection+0x41>
  402858:	83 e9 01             	sub    $0x1,%ecx
  40285b:	48 8d 0c 89          	lea    (%rcx,%rcx,4),%rcx
  40285f:	4c 8d 4c c8 28       	lea    0x28(%rax,%rcx,8),%r9
  402864:	44 8b 40 0c          	mov    0xc(%rax),%r8d
  402868:	49 39 d0             	cmp    %rdx,%r8
  40286b:	4c 89 c1             	mov    %r8,%rcx
  40286e:	77 08                	ja     402878 <_FindPESection+0x38>
  402870:	03 48 08             	add    0x8(%rax),%ecx
  402873:	48 39 ca             	cmp    %rcx,%rdx
  402876:	72 0b                	jb     402883 <_FindPESection+0x43>
  402878:	48 83 c0 28          	add    $0x28,%rax
  40287c:	4c 39 c8             	cmp    %r9,%rax
  40287f:	75 e3                	jne    402864 <_FindPESection+0x24>
  402881:	31 c0                	xor    %eax,%eax
  402883:	f3 c3                	repz retq 
  402885:	66 66 2e 0f 1f 84 00 	data16 nopw %cs:0x0(%rax,%rax,1)
  40288c:	00 00 00 00 

0000000000402890 <_FindPESectionByName>:
  402890:	57                   	push   %rdi
  402891:	56                   	push   %rsi
  402892:	53                   	push   %rbx
  402893:	48 83 ec 20          	sub    $0x20,%rsp
  402897:	48 89 ce             	mov    %rcx,%rsi
  40289a:	e8 b9 05 00 00       	callq  402e58 <strlen>
  40289f:	48 83 f8 08          	cmp    $0x8,%rax
  4028a3:	77 1b                	ja     4028c0 <_FindPESectionByName+0x30>
  4028a5:	48 8b 1d 94 1a 00 00 	mov    0x1a94(%rip),%rbx        # 404340 <.refptr.__image_base__>
  4028ac:	31 ff                	xor    %edi,%edi
  4028ae:	66 81 3b 4d 5a       	cmpw   $0x5a4d,(%rbx)
  4028b3:	74 1b                	je     4028d0 <_FindPESectionByName+0x40>
  4028b5:	48 89 f8             	mov    %rdi,%rax
  4028b8:	48 83 c4 20          	add    $0x20,%rsp
  4028bc:	5b                   	pop    %rbx
  4028bd:	5e                   	pop    %rsi
  4028be:	5f                   	pop    %rdi
  4028bf:	c3                   	retq   
  4028c0:	31 ff                	xor    %edi,%edi
  4028c2:	48 89 f8             	mov    %rdi,%rax
  4028c5:	48 83 c4 20          	add    $0x20,%rsp
  4028c9:	5b                   	pop    %rbx
  4028ca:	5e                   	pop    %rsi
  4028cb:	5f                   	pop    %rdi
  4028cc:	c3                   	retq   
  4028cd:	0f 1f 00             	nopl   (%rax)
  4028d0:	48 89 d9             	mov    %rbx,%rcx
  4028d3:	e8 28 ff ff ff       	callq  402800 <_ValidateImageBase.part.0>
  4028d8:	85 c0                	test   %eax,%eax
  4028da:	74 d9                	je     4028b5 <_FindPESectionByName+0x25>
  4028dc:	48 63 53 3c          	movslq 0x3c(%rbx),%rdx
  4028e0:	48 01 da             	add    %rbx,%rdx
  4028e3:	0f b7 42 14          	movzwl 0x14(%rdx),%eax
  4028e7:	48 8d 5c 02 18       	lea    0x18(%rdx,%rax,1),%rbx
  4028ec:	0f b7 52 06          	movzwl 0x6(%rdx),%edx
  4028f0:	85 d2                	test   %edx,%edx
  4028f2:	74 c1                	je     4028b5 <_FindPESectionByName+0x25>
  4028f4:	83 ea 01             	sub    $0x1,%edx
  4028f7:	48 8d 04 92          	lea    (%rdx,%rdx,4),%rax
  4028fb:	48 8d 7c c3 28       	lea    0x28(%rbx,%rax,8),%rdi
  402900:	eb 09                	jmp    40290b <_FindPESectionByName+0x7b>
  402902:	48 83 c3 28          	add    $0x28,%rbx
  402906:	48 39 fb             	cmp    %rdi,%rbx
  402909:	74 b5                	je     4028c0 <_FindPESectionByName+0x30>
  40290b:	41 b8 08 00 00 00    	mov    $0x8,%r8d
  402911:	48 89 f2             	mov    %rsi,%rdx
  402914:	48 89 d9             	mov    %rbx,%rcx
  402917:	e8 e4 05 00 00       	callq  402f00 <strncmp>
  40291c:	85 c0                	test   %eax,%eax
  40291e:	75 e2                	jne    402902 <_FindPESectionByName+0x72>
  402920:	48 89 df             	mov    %rbx,%rdi
  402923:	48 89 f8             	mov    %rdi,%rax
  402926:	48 83 c4 20          	add    $0x20,%rsp
  40292a:	5b                   	pop    %rbx
  40292b:	5e                   	pop    %rsi
  40292c:	5f                   	pop    %rdi
  40292d:	c3                   	retq   
  40292e:	66 90                	xchg   %ax,%ax

0000000000402930 <__mingw_GetSectionForAddress>:
  402930:	56                   	push   %rsi
  402931:	53                   	push   %rbx
  402932:	48 83 ec 28          	sub    $0x28,%rsp
  402936:	48 8b 1d 03 1a 00 00 	mov    0x1a03(%rip),%rbx        # 404340 <.refptr.__image_base__>
  40293d:	66 81 3b 4d 5a       	cmpw   $0x5a4d,(%rbx)
  402942:	74 0c                	je     402950 <__mingw_GetSectionForAddress+0x20>
  402944:	31 c0                	xor    %eax,%eax
  402946:	48 83 c4 28          	add    $0x28,%rsp
  40294a:	5b                   	pop    %rbx
  40294b:	5e                   	pop    %rsi
  40294c:	c3                   	retq   
  40294d:	0f 1f 00             	nopl   (%rax)
  402950:	48 89 ce             	mov    %rcx,%rsi
  402953:	48 89 d9             	mov    %rbx,%rcx
  402956:	e8 a5 fe ff ff       	callq  402800 <_ValidateImageBase.part.0>
  40295b:	85 c0                	test   %eax,%eax
  40295d:	74 e5                	je     402944 <__mingw_GetSectionForAddress+0x14>
  40295f:	48 29 de             	sub    %rbx,%rsi
  402962:	48 89 d9             	mov    %rbx,%rcx
  402965:	48 89 f2             	mov    %rsi,%rdx
  402968:	48 83 c4 28          	add    $0x28,%rsp
  40296c:	5b                   	pop    %rbx
  40296d:	5e                   	pop    %rsi
  40296e:	e9 cd fe ff ff       	jmpq   402840 <_FindPESection>
  402973:	66 66 66 66 2e 0f 1f 	data16 data16 data16 nopw %cs:0x0(%rax,%rax,1)
  40297a:	84 00 00 00 00 00 

0000000000402980 <__mingw_GetSectionCount>:
  402980:	53                   	push   %rbx
  402981:	48 83 ec 20          	sub    $0x20,%rsp
  402985:	48 8b 1d b4 19 00 00 	mov    0x19b4(%rip),%rbx        # 404340 <.refptr.__image_base__>
  40298c:	31 c0                	xor    %eax,%eax
  40298e:	66 81 3b 4d 5a       	cmpw   $0x5a4d,(%rbx)
  402993:	74 0b                	je     4029a0 <__mingw_GetSectionCount+0x20>
  402995:	48 83 c4 20          	add    $0x20,%rsp
  402999:	5b                   	pop    %rbx
  40299a:	c3                   	retq   
  40299b:	0f 1f 44 00 00       	nopl   0x0(%rax,%rax,1)
  4029a0:	48 89 d9             	mov    %rbx,%rcx
  4029a3:	e8 58 fe ff ff       	callq  402800 <_ValidateImageBase.part.0>
  4029a8:	85 c0                	test   %eax,%eax
  4029aa:	74 e9                	je     402995 <__mingw_GetSectionCount+0x15>
  4029ac:	48 63 43 3c          	movslq 0x3c(%rbx),%rax
  4029b0:	0f b7 44 18 06       	movzwl 0x6(%rax,%rbx,1),%eax
  4029b5:	48 83 c4 20          	add    $0x20,%rsp
  4029b9:	5b                   	pop    %rbx
  4029ba:	c3                   	retq   
  4029bb:	0f 1f 44 00 00       	nopl   0x0(%rax,%rax,1)

00000000004029c0 <_FindPESectionExec>:
  4029c0:	57                   	push   %rdi
  4029c1:	56                   	push   %rsi
  4029c2:	53                   	push   %rbx
  4029c3:	48 83 ec 20          	sub    $0x20,%rsp
  4029c7:	48 8b 35 72 19 00 00 	mov    0x1972(%rip),%rsi        # 404340 <.refptr.__image_base__>
  4029ce:	31 ff                	xor    %edi,%edi
  4029d0:	48 89 cb             	mov    %rcx,%rbx
  4029d3:	66 81 3e 4d 5a       	cmpw   $0x5a4d,(%rsi)
  4029d8:	74 0b                	je     4029e5 <_FindPESectionExec+0x25>
  4029da:	48 89 f8             	mov    %rdi,%rax
  4029dd:	48 83 c4 20          	add    $0x20,%rsp
  4029e1:	5b                   	pop    %rbx
  4029e2:	5e                   	pop    %rsi
  4029e3:	5f                   	pop    %rdi
  4029e4:	c3                   	retq   
  4029e5:	48 89 f1             	mov    %rsi,%rcx
  4029e8:	e8 13 fe ff ff       	callq  402800 <_ValidateImageBase.part.0>
  4029ed:	85 c0                	test   %eax,%eax
  4029ef:	74 e9                	je     4029da <_FindPESectionExec+0x1a>
  4029f1:	48 63 46 3c          	movslq 0x3c(%rsi),%rax
  4029f5:	48 01 c6             	add    %rax,%rsi
  4029f8:	0f b7 4e 06          	movzwl 0x6(%rsi),%ecx
  4029fc:	0f b7 46 14          	movzwl 0x14(%rsi),%eax
  402a00:	85 c9                	test   %ecx,%ecx
  402a02:	48 8d 54 06 18       	lea    0x18(%rsi,%rax,1),%rdx
  402a07:	74 d1                	je     4029da <_FindPESectionExec+0x1a>
  402a09:	83 e9 01             	sub    $0x1,%ecx
  402a0c:	48 8d 04 89          	lea    (%rcx,%rcx,4),%rax
  402a10:	48 8d 44 c2 28       	lea    0x28(%rdx,%rax,8),%rax
  402a15:	f6 42 27 20          	testb  $0x20,0x27(%rdx)
  402a19:	74 09                	je     402a24 <_FindPESectionExec+0x64>
  402a1b:	48 85 db             	test   %rbx,%rbx
  402a1e:	74 20                	je     402a40 <_FindPESectionExec+0x80>
  402a20:	48 83 eb 01          	sub    $0x1,%rbx
  402a24:	48 83 c2 28          	add    $0x28,%rdx
  402a28:	48 39 c2             	cmp    %rax,%rdx
  402a2b:	75 e8                	jne    402a15 <_FindPESectionExec+0x55>
  402a2d:	31 ff                	xor    %edi,%edi
  402a2f:	48 89 f8             	mov    %rdi,%rax
  402a32:	48 83 c4 20          	add    $0x20,%rsp
  402a36:	5b                   	pop    %rbx
  402a37:	5e                   	pop    %rsi
  402a38:	5f                   	pop    %rdi
  402a39:	c3                   	retq   
  402a3a:	66 0f 1f 44 00 00    	nopw   0x0(%rax,%rax,1)
  402a40:	48 89 d7             	mov    %rdx,%rdi
  402a43:	48 89 f8             	mov    %rdi,%rax
  402a46:	48 83 c4 20          	add    $0x20,%rsp
  402a4a:	5b                   	pop    %rbx
  402a4b:	5e                   	pop    %rsi
  402a4c:	5f                   	pop    %rdi
  402a4d:	c3                   	retq   
  402a4e:	66 90                	xchg   %ax,%ax

0000000000402a50 <_GetPEImageBase>:
  402a50:	56                   	push   %rsi
  402a51:	53                   	push   %rbx
  402a52:	48 83 ec 28          	sub    $0x28,%rsp
  402a56:	48 8b 35 e3 18 00 00 	mov    0x18e3(%rip),%rsi        # 404340 <.refptr.__image_base__>
  402a5d:	31 db                	xor    %ebx,%ebx
  402a5f:	66 81 3e 4d 5a       	cmpw   $0x5a4d,(%rsi)
  402a64:	74 0a                	je     402a70 <_GetPEImageBase+0x20>
  402a66:	48 89 d8             	mov    %rbx,%rax
  402a69:	48 83 c4 28          	add    $0x28,%rsp
  402a6d:	5b                   	pop    %rbx
  402a6e:	5e                   	pop    %rsi
  402a6f:	c3                   	retq   
  402a70:	48 89 f1             	mov    %rsi,%rcx
  402a73:	e8 88 fd ff ff       	callq  402800 <_ValidateImageBase.part.0>
  402a78:	85 c0                	test   %eax,%eax
  402a7a:	48 0f 45 de          	cmovne %rsi,%rbx
  402a7e:	48 89 d8             	mov    %rbx,%rax
  402a81:	48 83 c4 28          	add    $0x28,%rsp
  402a85:	5b                   	pop    %rbx
  402a86:	5e                   	pop    %rsi
  402a87:	c3                   	retq   
  402a88:	0f 1f 84 00 00 00 00 	nopl   0x0(%rax,%rax,1)
  402a8f:	00 

0000000000402a90 <_IsNonwritableInCurrentImage>:
  402a90:	56                   	push   %rsi
  402a91:	53                   	push   %rbx
  402a92:	48 83 ec 28          	sub    $0x28,%rsp
  402a96:	48 8b 1d a3 18 00 00 	mov    0x18a3(%rip),%rbx        # 404340 <.refptr.__image_base__>
  402a9d:	31 c0                	xor    %eax,%eax
  402a9f:	66 81 3b 4d 5a       	cmpw   $0x5a4d,(%rbx)
  402aa4:	74 0a                	je     402ab0 <_IsNonwritableInCurrentImage+0x20>
  402aa6:	48 83 c4 28          	add    $0x28,%rsp
  402aaa:	5b                   	pop    %rbx
  402aab:	5e                   	pop    %rsi
  402aac:	c3                   	retq   
  402aad:	0f 1f 00             	nopl   (%rax)
  402ab0:	48 89 ce             	mov    %rcx,%rsi
  402ab3:	48 89 d9             	mov    %rbx,%rcx
  402ab6:	e8 45 fd ff ff       	callq  402800 <_ValidateImageBase.part.0>
  402abb:	85 c0                	test   %eax,%eax
  402abd:	74 e7                	je     402aa6 <_IsNonwritableInCurrentImage+0x16>
  402abf:	48 29 de             	sub    %rbx,%rsi
  402ac2:	48 89 d9             	mov    %rbx,%rcx
  402ac5:	48 89 f2             	mov    %rsi,%rdx
  402ac8:	e8 73 fd ff ff       	callq  402840 <_FindPESection>
  402acd:	48 85 c0             	test   %rax,%rax
  402ad0:	74 0f                	je     402ae1 <_IsNonwritableInCurrentImage+0x51>
  402ad2:	8b 40 24             	mov    0x24(%rax),%eax
  402ad5:	f7 d0                	not    %eax
  402ad7:	c1 e8 1f             	shr    $0x1f,%eax
  402ada:	48 83 c4 28          	add    $0x28,%rsp
  402ade:	5b                   	pop    %rbx
  402adf:	5e                   	pop    %rsi
  402ae0:	c3                   	retq   
  402ae1:	31 c0                	xor    %eax,%eax
  402ae3:	eb c1                	jmp    402aa6 <_IsNonwritableInCurrentImage+0x16>
  402ae5:	66 66 2e 0f 1f 84 00 	data16 nopw %cs:0x0(%rax,%rax,1)
  402aec:	00 00 00 00 

0000000000402af0 <__mingw_enum_import_library_names>:
  402af0:	55                   	push   %rbp
  402af1:	57                   	push   %rdi
  402af2:	56                   	push   %rsi
  402af3:	53                   	push   %rbx
  402af4:	48 83 ec 28          	sub    $0x28,%rsp
  402af8:	48 8b 3d 41 18 00 00 	mov    0x1841(%rip),%rdi        # 404340 <.refptr.__image_base__>
  402aff:	31 ed                	xor    %ebp,%ebp
  402b01:	89 ce                	mov    %ecx,%esi
  402b03:	66 81 3f 4d 5a       	cmpw   $0x5a4d,(%rdi)
  402b08:	74 16                	je     402b20 <__mingw_enum_import_library_names+0x30>
  402b0a:	48 89 e8             	mov    %rbp,%rax
  402b0d:	48 83 c4 28          	add    $0x28,%rsp
  402b11:	5b                   	pop    %rbx
  402b12:	5e                   	pop    %rsi
  402b13:	5f                   	pop    %rdi
  402b14:	5d                   	pop    %rbp
  402b15:	c3                   	retq   
  402b16:	66 2e 0f 1f 84 00 00 	nopw   %cs:0x0(%rax,%rax,1)
  402b1d:	00 00 00 
  402b20:	48 89 f9             	mov    %rdi,%rcx
  402b23:	e8 d8 fc ff ff       	callq  402800 <_ValidateImageBase.part.0>
  402b28:	85 c0                	test   %eax,%eax
  402b2a:	74 de                	je     402b0a <__mingw_enum_import_library_names+0x1a>
  402b2c:	48 63 47 3c          	movslq 0x3c(%rdi),%rax
  402b30:	8b 94 07 90 00 00 00 	mov    0x90(%rdi,%rax,1),%edx
  402b37:	85 d2                	test   %edx,%edx
  402b39:	74 cf                	je     402b0a <__mingw_enum_import_library_names+0x1a>
  402b3b:	89 d3                	mov    %edx,%ebx
  402b3d:	48 89 f9             	mov    %rdi,%rcx
  402b40:	48 89 da             	mov    %rbx,%rdx
  402b43:	e8 f8 fc ff ff       	callq  402840 <_FindPESection>
  402b48:	48 85 c0             	test   %rax,%rax
  402b4b:	74 bd                	je     402b0a <__mingw_enum_import_library_names+0x1a>
  402b4d:	48 01 fb             	add    %rdi,%rbx
  402b50:	48 89 da             	mov    %rbx,%rdx
  402b53:	75 12                	jne    402b67 <__mingw_enum_import_library_names+0x77>
  402b55:	eb b3                	jmp    402b0a <__mingw_enum_import_library_names+0x1a>
  402b57:	66 0f 1f 84 00 00 00 	nopw   0x0(%rax,%rax,1)
  402b5e:	00 00 
  402b60:	83 ee 01             	sub    $0x1,%esi
  402b63:	48 83 c2 14          	add    $0x14,%rdx
  402b67:	8b 4a 04             	mov    0x4(%rdx),%ecx
  402b6a:	85 c9                	test   %ecx,%ecx
  402b6c:	75 07                	jne    402b75 <__mingw_enum_import_library_names+0x85>
  402b6e:	8b 42 0c             	mov    0xc(%rdx),%eax
  402b71:	85 c0                	test   %eax,%eax
  402b73:	74 1b                	je     402b90 <__mingw_enum_import_library_names+0xa0>
  402b75:	85 f6                	test   %esi,%esi
  402b77:	7f e7                	jg     402b60 <__mingw_enum_import_library_names+0x70>
  402b79:	8b 6a 0c             	mov    0xc(%rdx),%ebp
  402b7c:	48 01 fd             	add    %rdi,%rbp
  402b7f:	48 89 e8             	mov    %rbp,%rax
  402b82:	48 83 c4 28          	add    $0x28,%rsp
  402b86:	5b                   	pop    %rbx
  402b87:	5e                   	pop    %rsi
  402b88:	5f                   	pop    %rdi
  402b89:	5d                   	pop    %rbp
  402b8a:	c3                   	retq   
  402b8b:	0f 1f 44 00 00       	nopl   0x0(%rax,%rax,1)
  402b90:	31 ed                	xor    %ebp,%ebp
  402b92:	48 89 e8             	mov    %rbp,%rax
  402b95:	48 83 c4 28          	add    $0x28,%rsp
  402b99:	5b                   	pop    %rbx
  402b9a:	5e                   	pop    %rsi
  402b9b:	5f                   	pop    %rdi
  402b9c:	5d                   	pop    %rbp
  402b9d:	c3                   	retq   
  402b9e:	90                   	nop
  402b9f:	90                   	nop

0000000000402ba0 <__mingwthr_run_key_dtors.part.0>:
  402ba0:	55                   	push   %rbp
  402ba1:	57                   	push   %rdi
  402ba2:	56                   	push   %rsi
  402ba3:	53                   	push   %rbx
  402ba4:	48 83 ec 28          	sub    $0x28,%rsp
  402ba8:	48 8d 0d 11 4e 00 00 	lea    0x4e11(%rip),%rcx        # 4079c0 <__mingwthr_cs>
  402baf:	ff 15 4f 56 00 00    	callq  *0x564f(%rip)        # 408204 <__imp_EnterCriticalSection>
  402bb5:	48 8b 1d e4 4d 00 00 	mov    0x4de4(%rip),%rbx        # 4079a0 <key_dtor_list>
  402bbc:	48 85 db             	test   %rbx,%rbx
  402bbf:	74 33                	je     402bf4 <__mingwthr_run_key_dtors.part.0+0x54>
  402bc1:	48 8b 2d cc 56 00 00 	mov    0x56cc(%rip),%rbp        # 408294 <__imp_TlsGetValue>
  402bc8:	48 8b 3d 55 56 00 00 	mov    0x5655(%rip),%rdi        # 408224 <__imp_GetLastError>
  402bcf:	90                   	nop
  402bd0:	8b 0b                	mov    (%rbx),%ecx
  402bd2:	ff d5                	callq  *%rbp
  402bd4:	48 89 c6             	mov    %rax,%rsi
  402bd7:	ff d7                	callq  *%rdi
  402bd9:	85 c0                	test   %eax,%eax
  402bdb:	75 0e                	jne    402beb <__mingwthr_run_key_dtors.part.0+0x4b>
  402bdd:	48 85 f6             	test   %rsi,%rsi
  402be0:	74 09                	je     402beb <__mingwthr_run_key_dtors.part.0+0x4b>
  402be2:	48 8b 43 08          	mov    0x8(%rbx),%rax
  402be6:	48 89 f1             	mov    %rsi,%rcx
  402be9:	ff d0                	callq  *%rax
  402beb:	48 8b 5b 10          	mov    0x10(%rbx),%rbx
  402bef:	48 85 db             	test   %rbx,%rbx
  402bf2:	75 dc                	jne    402bd0 <__mingwthr_run_key_dtors.part.0+0x30>
  402bf4:	48 8b 05 51 56 00 00 	mov    0x5651(%rip),%rax        # 40824c <__imp_LeaveCriticalSection>
  402bfb:	48 8d 0d be 4d 00 00 	lea    0x4dbe(%rip),%rcx        # 4079c0 <__mingwthr_cs>
  402c02:	48 83 c4 28          	add    $0x28,%rsp
  402c06:	5b                   	pop    %rbx
  402c07:	5e                   	pop    %rsi
  402c08:	5f                   	pop    %rdi
  402c09:	5d                   	pop    %rbp
  402c0a:	48 ff e0             	rex.W jmpq *%rax
  402c0d:	0f 1f 00             	nopl   (%rax)

0000000000402c10 <___w64_mingwthr_add_key_dtor>:
  402c10:	57                   	push   %rdi
  402c11:	56                   	push   %rsi
  402c12:	53                   	push   %rbx
  402c13:	48 83 ec 20          	sub    $0x20,%rsp
  402c17:	8b 05 8b 4d 00 00    	mov    0x4d8b(%rip),%eax        # 4079a8 <__mingwthr_cs_init>
  402c1d:	85 c0                	test   %eax,%eax
  402c1f:	75 0f                	jne    402c30 <___w64_mingwthr_add_key_dtor+0x20>
  402c21:	48 83 c4 20          	add    $0x20,%rsp
  402c25:	5b                   	pop    %rbx
  402c26:	5e                   	pop    %rsi
  402c27:	5f                   	pop    %rdi
  402c28:	c3                   	retq   
  402c29:	0f 1f 80 00 00 00 00 	nopl   0x0(%rax)
  402c30:	48 89 d6             	mov    %rdx,%rsi
  402c33:	89 cf                	mov    %ecx,%edi
  402c35:	ba 18 00 00 00       	mov    $0x18,%edx
  402c3a:	b9 01 00 00 00       	mov    $0x1,%ecx
  402c3f:	e8 c4 02 00 00       	callq  402f08 <calloc>
  402c44:	48 85 c0             	test   %rax,%rax
  402c47:	48 89 c3             	mov    %rax,%rbx
  402c4a:	74 3c                	je     402c88 <___w64_mingwthr_add_key_dtor+0x78>
  402c4c:	89 38                	mov    %edi,(%rax)
  402c4e:	48 89 70 08          	mov    %rsi,0x8(%rax)
  402c52:	48 8d 0d 67 4d 00 00 	lea    0x4d67(%rip),%rcx        # 4079c0 <__mingwthr_cs>
  402c59:	ff 15 a5 55 00 00    	callq  *0x55a5(%rip)        # 408204 <__imp_EnterCriticalSection>
  402c5f:	48 8b 05 3a 4d 00 00 	mov    0x4d3a(%rip),%rax        # 4079a0 <key_dtor_list>
  402c66:	48 8d 0d 53 4d 00 00 	lea    0x4d53(%rip),%rcx        # 4079c0 <__mingwthr_cs>
  402c6d:	48 89 1d 2c 4d 00 00 	mov    %rbx,0x4d2c(%rip)        # 4079a0 <key_dtor_list>
  402c74:	48 89 43 10          	mov    %rax,0x10(%rbx)
  402c78:	ff 15 ce 55 00 00    	callq  *0x55ce(%rip)        # 40824c <__imp_LeaveCriticalSection>
  402c7e:	31 c0                	xor    %eax,%eax
  402c80:	48 83 c4 20          	add    $0x20,%rsp
  402c84:	5b                   	pop    %rbx
  402c85:	5e                   	pop    %rsi
  402c86:	5f                   	pop    %rdi
  402c87:	c3                   	retq   
  402c88:	b8 ff ff ff ff       	mov    $0xffffffff,%eax
  402c8d:	eb 92                	jmp    402c21 <___w64_mingwthr_add_key_dtor+0x11>
  402c8f:	90                   	nop

0000000000402c90 <___w64_mingwthr_remove_key_dtor>:
  402c90:	53                   	push   %rbx
  402c91:	48 83 ec 20          	sub    $0x20,%rsp
  402c95:	8b 05 0d 4d 00 00    	mov    0x4d0d(%rip),%eax        # 4079a8 <__mingwthr_cs_init>
  402c9b:	85 c0                	test   %eax,%eax
  402c9d:	75 11                	jne    402cb0 <___w64_mingwthr_remove_key_dtor+0x20>
  402c9f:	31 c0                	xor    %eax,%eax
  402ca1:	48 83 c4 20          	add    $0x20,%rsp
  402ca5:	5b                   	pop    %rbx
  402ca6:	c3                   	retq   
  402ca7:	66 0f 1f 84 00 00 00 	nopw   0x0(%rax,%rax,1)
  402cae:	00 00 
  402cb0:	89 cb                	mov    %ecx,%ebx
  402cb2:	48 8d 0d 07 4d 00 00 	lea    0x4d07(%rip),%rcx        # 4079c0 <__mingwthr_cs>
  402cb9:	ff 15 45 55 00 00    	callq  *0x5545(%rip)        # 408204 <__imp_EnterCriticalSection>
  402cbf:	48 8b 15 da 4c 00 00 	mov    0x4cda(%rip),%rdx        # 4079a0 <key_dtor_list>
  402cc6:	48 85 d2             	test   %rdx,%rdx
  402cc9:	74 1c                	je     402ce7 <___w64_mingwthr_remove_key_dtor+0x57>
  402ccb:	8b 02                	mov    (%rdx),%eax
  402ccd:	39 d8                	cmp    %ebx,%eax
  402ccf:	75 0d                	jne    402cde <___w64_mingwthr_remove_key_dtor+0x4e>
  402cd1:	eb 4c                	jmp    402d1f <___w64_mingwthr_remove_key_dtor+0x8f>
  402cd3:	44 8b 00             	mov    (%rax),%r8d
  402cd6:	41 39 d8             	cmp    %ebx,%r8d
  402cd9:	74 25                	je     402d00 <___w64_mingwthr_remove_key_dtor+0x70>
  402cdb:	48 89 c2             	mov    %rax,%rdx
  402cde:	48 8b 42 10          	mov    0x10(%rdx),%rax
  402ce2:	48 85 c0             	test   %rax,%rax
  402ce5:	75 ec                	jne    402cd3 <___w64_mingwthr_remove_key_dtor+0x43>
  402ce7:	48 8d 0d d2 4c 00 00 	lea    0x4cd2(%rip),%rcx        # 4079c0 <__mingwthr_cs>
  402cee:	ff 15 58 55 00 00    	callq  *0x5558(%rip)        # 40824c <__imp_LeaveCriticalSection>
  402cf4:	31 c0                	xor    %eax,%eax
  402cf6:	48 83 c4 20          	add    $0x20,%rsp
  402cfa:	5b                   	pop    %rbx
  402cfb:	c3                   	retq   
  402cfc:	0f 1f 40 00          	nopl   0x0(%rax)
  402d00:	48 89 c1             	mov    %rax,%rcx
  402d03:	48 8b 40 10          	mov    0x10(%rax),%rax
  402d07:	48 89 42 10          	mov    %rax,0x10(%rdx)
  402d0b:	e8 00 02 00 00       	callq  402f10 <free>
  402d10:	48 8d 0d a9 4c 00 00 	lea    0x4ca9(%rip),%rcx        # 4079c0 <__mingwthr_cs>
  402d17:	ff 15 2f 55 00 00    	callq  *0x552f(%rip)        # 40824c <__imp_LeaveCriticalSection>
  402d1d:	eb d5                	jmp    402cf4 <___w64_mingwthr_remove_key_dtor+0x64>
  402d1f:	48 8b 42 10          	mov    0x10(%rdx),%rax
  402d23:	48 89 d1             	mov    %rdx,%rcx
  402d26:	48 89 05 73 4c 00 00 	mov    %rax,0x4c73(%rip)        # 4079a0 <key_dtor_list>
  402d2d:	eb dc                	jmp    402d0b <___w64_mingwthr_remove_key_dtor+0x7b>
  402d2f:	90                   	nop

0000000000402d30 <__mingw_TLScallback>:
  402d30:	48 83 ec 28          	sub    $0x28,%rsp
  402d34:	83 fa 01             	cmp    $0x1,%edx
  402d37:	74 49                	je     402d82 <__mingw_TLScallback+0x52>
  402d39:	72 19                	jb     402d54 <__mingw_TLScallback+0x24>
  402d3b:	83 fa 03             	cmp    $0x3,%edx
  402d3e:	75 0a                	jne    402d4a <__mingw_TLScallback+0x1a>
  402d40:	8b 05 62 4c 00 00    	mov    0x4c62(%rip),%eax        # 4079a8 <__mingwthr_cs_init>
  402d46:	85 c0                	test   %eax,%eax
  402d48:	75 66                	jne    402db0 <__mingw_TLScallback+0x80>
  402d4a:	b8 01 00 00 00       	mov    $0x1,%eax
  402d4f:	48 83 c4 28          	add    $0x28,%rsp
  402d53:	c3                   	retq   
  402d54:	8b 05 4e 4c 00 00    	mov    0x4c4e(%rip),%eax        # 4079a8 <__mingwthr_cs_init>
  402d5a:	85 c0                	test   %eax,%eax
  402d5c:	75 62                	jne    402dc0 <__mingw_TLScallback+0x90>
  402d5e:	8b 05 44 4c 00 00    	mov    0x4c44(%rip),%eax        # 4079a8 <__mingwthr_cs_init>
  402d64:	83 f8 01             	cmp    $0x1,%eax
  402d67:	75 e1                	jne    402d4a <__mingw_TLScallback+0x1a>
  402d69:	48 8d 0d 50 4c 00 00 	lea    0x4c50(%rip),%rcx        # 4079c0 <__mingwthr_cs>
  402d70:	c7 05 2e 4c 00 00 00 	movl   $0x0,0x4c2e(%rip)        # 4079a8 <__mingwthr_cs_init>
  402d77:	00 00 00 
  402d7a:	ff 15 7c 54 00 00    	callq  *0x547c(%rip)        # 4081fc <__IAT_start__>
  402d80:	eb c8                	jmp    402d4a <__mingw_TLScallback+0x1a>
  402d82:	8b 05 20 4c 00 00    	mov    0x4c20(%rip),%eax        # 4079a8 <__mingwthr_cs_init>
  402d88:	85 c0                	test   %eax,%eax
  402d8a:	74 14                	je     402da0 <__mingw_TLScallback+0x70>
  402d8c:	b8 01 00 00 00       	mov    $0x1,%eax
  402d91:	c7 05 0d 4c 00 00 01 	movl   $0x1,0x4c0d(%rip)        # 4079a8 <__mingwthr_cs_init>
  402d98:	00 00 00 
  402d9b:	48 83 c4 28          	add    $0x28,%rsp
  402d9f:	c3                   	retq   
  402da0:	48 8d 0d 19 4c 00 00 	lea    0x4c19(%rip),%rcx        # 4079c0 <__mingwthr_cs>
  402da7:	ff 15 97 54 00 00    	callq  *0x5497(%rip)        # 408244 <__imp_InitializeCriticalSection>
  402dad:	eb dd                	jmp    402d8c <__mingw_TLScallback+0x5c>
  402daf:	90                   	nop
  402db0:	e8 eb fd ff ff       	callq  402ba0 <__mingwthr_run_key_dtors.part.0>
  402db5:	eb 93                	jmp    402d4a <__mingw_TLScallback+0x1a>
  402db7:	66 0f 1f 84 00 00 00 	nopw   0x0(%rax,%rax,1)
  402dbe:	00 00 
  402dc0:	e8 db fd ff ff       	callq  402ba0 <__mingwthr_run_key_dtors.part.0>
  402dc5:	eb 97                	jmp    402d5e <__mingw_TLScallback+0x2e>
  402dc7:	90                   	nop
  402dc8:	90                   	nop
  402dc9:	90                   	nop
  402dca:	90                   	nop
  402dcb:	90                   	nop
  402dcc:	90                   	nop
  402dcd:	90                   	nop
  402dce:	90                   	nop
  402dcf:	90                   	nop

0000000000402dd0 <___chkstk_ms>:
  402dd0:	51                   	push   %rcx
  402dd1:	50                   	push   %rax
  402dd2:	48 3d 00 10 00 00    	cmp    $0x1000,%rax
  402dd8:	48 8d 4c 24 18       	lea    0x18(%rsp),%rcx
  402ddd:	72 19                	jb     402df8 <___chkstk_ms+0x28>
  402ddf:	48 81 e9 00 10 00 00 	sub    $0x1000,%rcx
  402de6:	48 83 09 00          	orq    $0x0,(%rcx)
  402dea:	48 2d 00 10 00 00    	sub    $0x1000,%rax
  402df0:	48 3d 00 10 00 00    	cmp    $0x1000,%rax
  402df6:	77 e7                	ja     402ddf <___chkstk_ms+0xf>
  402df8:	48 29 c1             	sub    %rax,%rcx
  402dfb:	48 83 09 00          	orq    $0x0,(%rcx)
  402dff:	58                   	pop    %rax
  402e00:	59                   	pop    %rcx
  402e01:	c3                   	retq   
  402e02:	90                   	nop
  402e03:	90                   	nop
  402e04:	90                   	nop
  402e05:	90                   	nop
  402e06:	90                   	nop
  402e07:	90                   	nop
  402e08:	90                   	nop
  402e09:	90                   	nop
  402e0a:	90                   	nop
  402e0b:	90                   	nop
  402e0c:	90                   	nop
  402e0d:	90                   	nop
  402e0e:	90                   	nop
  402e0f:	90                   	nop

0000000000402e10 <__C_specific_handler>:
  402e10:	ff 25 a6 54 00 00    	jmpq   *0x54a6(%rip)        # 4082bc <__imp___C_specific_handler>
  402e16:	90                   	nop
  402e17:	90                   	nop

0000000000402e18 <__set_app_type>:
  402e18:	ff 25 ce 54 00 00    	jmpq   *0x54ce(%rip)        # 4082ec <__imp___set_app_type>
  402e1e:	90                   	nop
  402e1f:	90                   	nop

0000000000402e20 <__getmainargs>:
  402e20:	ff 25 a6 54 00 00    	jmpq   *0x54a6(%rip)        # 4082cc <__imp___getmainargs>
  402e26:	90                   	nop
  402e27:	90                   	nop
  402e28:	0f 1f 84 00 00 00 00 	nopl   0x0(%rax,%rax,1)
  402e2f:	00 

0000000000402e30 <_get_invalid_parameter_handler>:
  402e30:	48 8b 05 c9 4b 00 00 	mov    0x4bc9(%rip),%rax        # 407a00 <handler>
  402e37:	c3                   	retq   
  402e38:	0f 1f 84 00 00 00 00 	nopl   0x0(%rax,%rax,1)
  402e3f:	00 

0000000000402e40 <_set_invalid_parameter_handler>:
  402e40:	48 89 c8             	mov    %rcx,%rax
  402e43:	48 87 05 b6 4b 00 00 	xchg   %rax,0x4bb6(%rip)        # 407a00 <handler>
  402e4a:	c3                   	retq   
  402e4b:	90                   	nop
  402e4c:	90                   	nop
  402e4d:	90                   	nop
  402e4e:	90                   	nop
  402e4f:	90                   	nop

0000000000402e50 <malloc>:
  402e50:	ff 25 16 55 00 00    	jmpq   *0x5516(%rip)        # 40836c <__imp_malloc>
  402e56:	90                   	nop
  402e57:	90                   	nop

0000000000402e58 <strlen>:
  402e58:	ff 25 3e 55 00 00    	jmpq   *0x553e(%rip)        # 40839c <__imp_strlen>
  402e5e:	90                   	nop
  402e5f:	90                   	nop

0000000000402e60 <memcpy>:
  402e60:	ff 25 0e 55 00 00    	jmpq   *0x550e(%rip)        # 408374 <__imp_memcpy>
  402e66:	90                   	nop
  402e67:	90                   	nop

0000000000402e68 <_cexit>:
  402e68:	ff 25 9e 54 00 00    	jmpq   *0x549e(%rip)        # 40830c <__imp__cexit>
  402e6e:	90                   	nop
  402e6f:	90                   	nop

0000000000402e70 <_amsg_exit>:
  402e70:	ff 25 8e 54 00 00    	jmpq   *0x548e(%rip)        # 408304 <__imp__amsg_exit>
  402e76:	90                   	nop
  402e77:	90                   	nop

0000000000402e78 <_initterm>:
  402e78:	ff 25 9e 54 00 00    	jmpq   *0x549e(%rip)        # 40831c <__imp__initterm>
  402e7e:	90                   	nop
  402e7f:	90                   	nop

0000000000402e80 <exit>:
  402e80:	ff 25 c6 54 00 00    	jmpq   *0x54c6(%rip)        # 40834c <__imp_exit>
  402e86:	90                   	nop
  402e87:	90                   	nop

0000000000402e88 <printf>:
  402e88:	ff 25 ee 54 00 00    	jmpq   *0x54ee(%rip)        # 40837c <__imp_printf>
  402e8e:	90                   	nop
  402e8f:	90                   	nop

0000000000402e90 <scanf>:
  402e90:	ff 25 f6 54 00 00    	jmpq   *0x54f6(%rip)        # 40838c <__imp_scanf>
  402e96:	90                   	nop
  402e97:	90                   	nop

0000000000402e98 <puts>:
  402e98:	ff 25 e6 54 00 00    	jmpq   *0x54e6(%rip)        # 408384 <__imp_puts>
  402e9e:	90                   	nop
  402e9f:	90                   	nop

0000000000402ea0 <__setusermatherr>:
  402ea0:	ff 25 4e 54 00 00    	jmpq   *0x544e(%rip)        # 4082f4 <__imp___setusermatherr>
  402ea6:	90                   	nop
  402ea7:	90                   	nop

0000000000402ea8 <__iob_func>:
  402ea8:	ff 25 2e 54 00 00    	jmpq   *0x542e(%rip)        # 4082dc <__imp___iob_func>
  402eae:	90                   	nop
  402eaf:	90                   	nop

0000000000402eb0 <fprintf>:
  402eb0:	ff 25 9e 54 00 00    	jmpq   *0x549e(%rip)        # 408354 <__imp_fprintf>
  402eb6:	90                   	nop
  402eb7:	90                   	nop

0000000000402eb8 <fwrite>:
  402eb8:	ff 25 a6 54 00 00    	jmpq   *0x54a6(%rip)        # 408364 <__imp_fwrite>
  402ebe:	90                   	nop
  402ebf:	90                   	nop

0000000000402ec0 <vfprintf>:
  402ec0:	ff 25 e6 54 00 00    	jmpq   *0x54e6(%rip)        # 4083ac <__imp_vfprintf>
  402ec6:	90                   	nop
  402ec7:	90                   	nop

0000000000402ec8 <abort>:
  402ec8:	ff 25 6e 54 00 00    	jmpq   *0x546e(%rip)        # 40833c <__imp_abort>
  402ece:	90                   	nop
  402ecf:	90                   	nop

0000000000402ed0 <signal>:
  402ed0:	ff 25 be 54 00 00    	jmpq   *0x54be(%rip)        # 408394 <__imp_signal>
  402ed6:	90                   	nop
  402ed7:	90                   	nop

0000000000402ed8 <_lock>:
  402ed8:	ff 25 46 54 00 00    	jmpq   *0x5446(%rip)        # 408324 <__imp__lock>
  402ede:	90                   	nop
  402edf:	90                   	nop

0000000000402ee0 <__dllonexit>:
  402ee0:	ff 25 de 53 00 00    	jmpq   *0x53de(%rip)        # 4082c4 <__imp___dllonexit>
  402ee6:	90                   	nop
  402ee7:	90                   	nop

0000000000402ee8 <_unlock>:
  402ee8:	ff 25 46 54 00 00    	jmpq   *0x5446(%rip)        # 408334 <__imp__unlock>
  402eee:	90                   	nop
  402eef:	90                   	nop

0000000000402ef0 <_onexit>:
  402ef0:	ff 25 36 54 00 00    	jmpq   *0x5436(%rip)        # 40832c <__imp__onexit>
  402ef6:	90                   	nop
  402ef7:	90                   	nop

0000000000402ef8 <__lconv_init>:
  402ef8:	ff 25 e6 53 00 00    	jmpq   *0x53e6(%rip)        # 4082e4 <__imp___lconv_init>
  402efe:	90                   	nop
  402eff:	90                   	nop

0000000000402f00 <strncmp>:
  402f00:	ff 25 9e 54 00 00    	jmpq   *0x549e(%rip)        # 4083a4 <__imp_strncmp>
  402f06:	90                   	nop
  402f07:	90                   	nop

0000000000402f08 <calloc>:
  402f08:	ff 25 36 54 00 00    	jmpq   *0x5436(%rip)        # 408344 <__imp_calloc>
  402f0e:	90                   	nop
  402f0f:	90                   	nop

0000000000402f10 <free>:
  402f10:	ff 25 46 54 00 00    	jmpq   *0x5446(%rip)        # 40835c <__imp_free>
  402f16:	90                   	nop
  402f17:	90                   	nop
  402f18:	0f 1f 84 00 00 00 00 	nopl   0x0(%rax,%rax,1)
  402f1f:	00 

0000000000402f20 <Sleep>:
  402f20:	ff 25 5e 53 00 00    	jmpq   *0x535e(%rip)        # 408284 <__imp_Sleep>
  402f26:	90                   	nop
  402f27:	90                   	nop

0000000000402f28 <SetUnhandledExceptionFilter>:
  402f28:	ff 25 4e 53 00 00    	jmpq   *0x534e(%rip)        # 40827c <__imp_SetUnhandledExceptionFilter>
  402f2e:	90                   	nop
  402f2f:	90                   	nop

0000000000402f30 <GetStartupInfoA>:
  402f30:	ff 25 f6 52 00 00    	jmpq   *0x52f6(%rip)        # 40822c <__imp_GetStartupInfoA>
  402f36:	90                   	nop
  402f37:	90                   	nop

0000000000402f38 <VirtualQuery>:
  402f38:	ff 25 6e 53 00 00    	jmpq   *0x536e(%rip)        # 4082ac <__imp_VirtualQuery>
  402f3e:	90                   	nop
  402f3f:	90                   	nop

0000000000402f40 <VirtualProtect>:
  402f40:	ff 25 5e 53 00 00    	jmpq   *0x535e(%rip)        # 4082a4 <__imp_VirtualProtect>
  402f46:	90                   	nop
  402f47:	90                   	nop

0000000000402f48 <GetLastError>:
  402f48:	ff 25 d6 52 00 00    	jmpq   *0x52d6(%rip)        # 408224 <__imp_GetLastError>
  402f4e:	90                   	nop
  402f4f:	90                   	nop

0000000000402f50 <RtlAddFunctionTable>:
  402f50:	ff 25 06 53 00 00    	jmpq   *0x5306(%rip)        # 40825c <__imp_RtlAddFunctionTable>
  402f56:	90                   	nop
  402f57:	90                   	nop

0000000000402f58 <GetSystemTimeAsFileTime>:
  402f58:	ff 25 d6 52 00 00    	jmpq   *0x52d6(%rip)        # 408234 <__imp_GetSystemTimeAsFileTime>
  402f5e:	90                   	nop
  402f5f:	90                   	nop

0000000000402f60 <GetCurrentProcessId>:
  402f60:	ff 25 ae 52 00 00    	jmpq   *0x52ae(%rip)        # 408214 <__imp_GetCurrentProcessId>
  402f66:	90                   	nop
  402f67:	90                   	nop

0000000000402f68 <GetCurrentThreadId>:
  402f68:	ff 25 ae 52 00 00    	jmpq   *0x52ae(%rip)        # 40821c <__imp_GetCurrentThreadId>
  402f6e:	90                   	nop
  402f6f:	90                   	nop

0000000000402f70 <GetTickCount>:
  402f70:	ff 25 c6 52 00 00    	jmpq   *0x52c6(%rip)        # 40823c <__imp_GetTickCount>
  402f76:	90                   	nop
  402f77:	90                   	nop

0000000000402f78 <QueryPerformanceCounter>:
  402f78:	ff 25 d6 52 00 00    	jmpq   *0x52d6(%rip)        # 408254 <__imp_QueryPerformanceCounter>
  402f7e:	90                   	nop
  402f7f:	90                   	nop

0000000000402f80 <RtlCaptureContext>:
  402f80:	ff 25 de 52 00 00    	jmpq   *0x52de(%rip)        # 408264 <__imp_RtlCaptureContext>
  402f86:	90                   	nop
  402f87:	90                   	nop

0000000000402f88 <RtlLookupFunctionEntry>:
  402f88:	ff 25 de 52 00 00    	jmpq   *0x52de(%rip)        # 40826c <__imp_RtlLookupFunctionEntry>
  402f8e:	90                   	nop
  402f8f:	90                   	nop

0000000000402f90 <RtlVirtualUnwind>:
  402f90:	ff 25 de 52 00 00    	jmpq   *0x52de(%rip)        # 408274 <__imp_RtlVirtualUnwind>
  402f96:	90                   	nop
  402f97:	90                   	nop

0000000000402f98 <UnhandledExceptionFilter>:
  402f98:	ff 25 fe 52 00 00    	jmpq   *0x52fe(%rip)        # 40829c <__imp_UnhandledExceptionFilter>
  402f9e:	90                   	nop
  402f9f:	90                   	nop

0000000000402fa0 <GetCurrentProcess>:
  402fa0:	ff 25 66 52 00 00    	jmpq   *0x5266(%rip)        # 40820c <__imp_GetCurrentProcess>
  402fa6:	90                   	nop
  402fa7:	90                   	nop

0000000000402fa8 <TerminateProcess>:
  402fa8:	ff 25 de 52 00 00    	jmpq   *0x52de(%rip)        # 40828c <__imp_TerminateProcess>
  402fae:	90                   	nop
  402faf:	90                   	nop

0000000000402fb0 <EnterCriticalSection>:
  402fb0:	ff 25 4e 52 00 00    	jmpq   *0x524e(%rip)        # 408204 <__imp_EnterCriticalSection>
  402fb6:	90                   	nop
  402fb7:	90                   	nop

0000000000402fb8 <TlsGetValue>:
  402fb8:	ff 25 d6 52 00 00    	jmpq   *0x52d6(%rip)        # 408294 <__imp_TlsGetValue>
  402fbe:	90                   	nop
  402fbf:	90                   	nop

0000000000402fc0 <LeaveCriticalSection>:
  402fc0:	ff 25 86 52 00 00    	jmpq   *0x5286(%rip)        # 40824c <__imp_LeaveCriticalSection>
  402fc6:	90                   	nop
  402fc7:	90                   	nop

0000000000402fc8 <DeleteCriticalSection>:
  402fc8:	ff 25 2e 52 00 00    	jmpq   *0x522e(%rip)        # 4081fc <__IAT_start__>
  402fce:	90                   	nop
  402fcf:	90                   	nop

0000000000402fd0 <InitializeCriticalSection>:
  402fd0:	ff 25 6e 52 00 00    	jmpq   *0x526e(%rip)        # 408244 <__imp_InitializeCriticalSection>
  402fd6:	90                   	nop
  402fd7:	90                   	nop
  402fd8:	0f 1f 84 00 00 00 00 	nopl   0x0(%rax,%rax,1)
  402fdf:	00 

0000000000402fe0 <__CTOR_LIST__>:
  402fe0:	ff                   	(bad)  
  402fe1:	ff                   	(bad)  
  402fe2:	ff                   	(bad)  
  402fe3:	ff                   	(bad)  
  402fe4:	ff                   	(bad)  
  402fe5:	ff                   	(bad)  
  402fe6:	ff                   	(bad)  
  402fe7:	ff 00                	incl   (%rax)
  402fe9:	00 00                	add    %al,(%rax)
  402feb:	00 00                	add    %al,(%rax)
  402fed:	00 00                	add    %al,(%rax)
	...

0000000000402ff0 <__DTOR_LIST__>:
  402ff0:	ff                   	(bad)  
  402ff1:	ff                   	(bad)  
  402ff2:	ff                   	(bad)  
  402ff3:	ff                   	(bad)  
  402ff4:	ff                   	(bad)  
  402ff5:	ff                   	(bad)  
  402ff6:	ff                   	(bad)  
  402ff7:	ff 00                	incl   (%rax)
  402ff9:	00 00                	add    %al,(%rax)
  402ffb:	00 00                	add    %al,(%rax)
  402ffd:	00 00                	add    %al,(%rax)
	...

Disassembly of section .rdata:

0000000000404000 <.rdata>:
  404000:	45 6e                	rex.RB outsb %ds:(%rsi),(%dx)
  404002:	74 65                	je     404069 <.rdata+0x9>
  404004:	72 20                	jb     404026 <.rdata+0x26>
  404006:	66 69 72 73 74 20    	imul   $0x2074,0x73(%rdx),%si
  40400c:	6e                   	outsb  %ds:(%rsi),(%dx)
  40400d:	75 6d                	jne    40407c <.rdata+0x1c>
  40400f:	62                   	(bad)  
  404010:	65 72 3a             	gs jb  40404d <.rdata+0x4d>
  404013:	20 00                	and    %al,(%rax)
  404015:	25 73 00 0a 73       	and    $0x730a0073,%eax
  40401a:	75 63                	jne    40407f <.rdata+0x1f>
  40401c:	63 65 73             	movslq 0x73(%rbp),%esp
  40401f:	73 00                	jae    404021 <.rdata+0x21>
  404021:	45 6e                	rex.RB outsb %ds:(%rsi),(%dx)
  404023:	74 65                	je     40408a <.rdata+0x2a>
  404025:	72 20                	jb     404047 <.rdata+0x47>
  404027:	73 65                	jae    40408e <.rdata+0x2e>
  404029:	63 6f 6e             	movslq 0x6e(%rdi),%ebp
  40402c:	64 20 6e 75          	and    %ch,%fs:0x75(%rsi)
  404030:	6d                   	insl   (%dx),%es:(%rdi)
  404031:	62                   	(bad)  
  404032:	65 72 3a             	gs jb  40406f <.rdata+0xf>
  404035:	20 00                	and    %al,(%rax)
  404037:	4f 76 65             	rex.WRXB jbe 40409f <.rdata+0x3f>
  40403a:	72 66                	jb     4040a2 <.rdata+0x42>
  40403c:	6c                   	insb   (%dx),%es:(%rdi)
  40403d:	6f                   	outsl  %ds:(%rsi),(%dx)
  40403e:	77 20                	ja     404060 <.rdata>
  404040:	64 65 74 65          	fs gs je 4040a9 <.rdata+0x49>
  404044:	63 74 65 64          	movslq 0x64(%rbp,%riz,2),%esi
  404048:	00 66 6e             	add    %ah,0x6e(%rsi)
  40404b:	69 65 77 6e 66 6f 72 	imul   $0x726f666e,0x77(%rbp),%esp
  404052:	67 00 00             	add    %al,(%eax)
	...

0000000000404060 <.rdata>:
  404060:	41 72 67             	rex.B jb 4040ca <.rdata+0x6a>
  404063:	75 6d                	jne    4040d2 <.rdata+0x72>
  404065:	65 6e                	outsb  %gs:(%rsi),(%dx)
  404067:	74 20                	je     404089 <.rdata+0x29>
  404069:	64 6f                	outsl  %fs:(%rsi),(%dx)
  40406b:	6d                   	insl   (%dx),%es:(%rdi)
  40406c:	61                   	(bad)  
  40406d:	69 6e 20 65 72 72 6f 	imul   $0x6f727265,0x20(%rsi),%ebp
  404074:	72 20                	jb     404096 <.rdata+0x36>
  404076:	28 44 4f 4d          	sub    %al,0x4d(%rdi,%rcx,2)
  40407a:	41                   	rex.B
  40407b:	49                   	rex.WB
  40407c:	4e 29 00             	rex.WRX sub %r8,(%rax)
  40407f:	41 72 67             	rex.B jb 4040e9 <.rdata+0x89>
  404082:	75 6d                	jne    4040f1 <.rdata+0x91>
  404084:	65 6e                	outsb  %gs:(%rsi),(%dx)
  404086:	74 20                	je     4040a8 <.rdata+0x48>
  404088:	73 69                	jae    4040f3 <.rdata+0x93>
  40408a:	6e                   	outsb  %ds:(%rsi),(%dx)
  40408b:	67 75 6c             	addr32 jne 4040fa <.rdata+0x9a>
  40408e:	61                   	(bad)  
  40408f:	72 69                	jb     4040fa <.rdata+0x9a>
  404091:	74 79                	je     40410c <.rdata+0xac>
  404093:	20 28                	and    %ch,(%rax)
  404095:	53                   	push   %rbx
  404096:	49                   	rex.WB
  404097:	47                   	rex.RXB
  404098:	4e 29 00             	rex.WRX sub %r8,(%rax)
  40409b:	00 00                	add    %al,(%rax)
  40409d:	00 00                	add    %al,(%rax)
  40409f:	00 4f 76             	add    %cl,0x76(%rdi)
  4040a2:	65 72 66             	gs jb  40410b <.rdata+0xab>
  4040a5:	6c                   	insb   (%dx),%es:(%rdi)
  4040a6:	6f                   	outsl  %ds:(%rsi),(%dx)
  4040a7:	77 20                	ja     4040c9 <.rdata+0x69>
  4040a9:	72 61                	jb     40410c <.rdata+0xac>
  4040ab:	6e                   	outsb  %ds:(%rsi),(%dx)
  4040ac:	67 65 20 65 72       	and    %ah,%gs:0x72(%ebp)
  4040b1:	72 6f                	jb     404122 <.rdata+0xc2>
  4040b3:	72 20                	jb     4040d5 <.rdata+0x75>
  4040b5:	28 4f 56             	sub    %cl,0x56(%rdi)
  4040b8:	45 52                	rex.RB push %r10
  4040ba:	46                   	rex.RX
  4040bb:	4c                   	rex.WR
  4040bc:	4f 57                	rex.WRXB push %r15
  4040be:	29 00                	sub    %eax,(%rax)
  4040c0:	50                   	push   %rax
  4040c1:	61                   	(bad)  
  4040c2:	72 74                	jb     404138 <.rdata+0xd8>
  4040c4:	69 61 6c 20 6c 6f 73 	imul   $0x736f6c20,0x6c(%rcx),%esp
  4040cb:	73 20                	jae    4040ed <.rdata+0x8d>
  4040cd:	6f                   	outsl  %ds:(%rsi),(%dx)
  4040ce:	66 20 73 69          	data16 and %dh,0x69(%rbx)
  4040d2:	67 6e                	outsb  %ds:(%esi),(%dx)
  4040d4:	69 66 69 63 61 6e 63 	imul   $0x636e6163,0x69(%rsi),%esp
  4040db:	65 20 28             	and    %ch,%gs:(%rax)
  4040de:	50                   	push   %rax
  4040df:	4c                   	rex.WR
  4040e0:	4f 53                	rex.WRXB push %r11
  4040e2:	53                   	push   %rbx
  4040e3:	29 00                	sub    %eax,(%rax)
  4040e5:	00 00                	add    %al,(%rax)
  4040e7:	00 54 6f 74          	add    %dl,0x74(%rdi,%rbp,2)
  4040eb:	61                   	(bad)  
  4040ec:	6c                   	insb   (%dx),%es:(%rdi)
  4040ed:	20 6c 6f 73          	and    %ch,0x73(%rdi,%rbp,2)
  4040f1:	73 20                	jae    404113 <.rdata+0xb3>
  4040f3:	6f                   	outsl  %ds:(%rsi),(%dx)
  4040f4:	66 20 73 69          	data16 and %dh,0x69(%rbx)
  4040f8:	67 6e                	outsb  %ds:(%esi),(%dx)
  4040fa:	69 66 69 63 61 6e 63 	imul   $0x636e6163,0x69(%rsi),%esp
  404101:	65 20 28             	and    %ch,%gs:(%rax)
  404104:	54                   	push   %rsp
  404105:	4c                   	rex.WR
  404106:	4f 53                	rex.WRXB push %r11
  404108:	53                   	push   %rbx
  404109:	29 00                	sub    %eax,(%rax)
  40410b:	00 00                	add    %al,(%rax)
  40410d:	00 00                	add    %al,(%rax)
  40410f:	00 54 68 65          	add    %dl,0x65(%rax,%rbp,2)
  404113:	20 72 65             	and    %dh,0x65(%rdx)
  404116:	73 75                	jae    40418d <.rdata+0x12d>
  404118:	6c                   	insb   (%dx),%es:(%rdi)
  404119:	74 20                	je     40413b <.rdata+0xdb>
  40411b:	69 73 20 74 6f 6f 20 	imul   $0x206f6f74,0x20(%rbx),%esi
  404122:	73 6d                	jae    404191 <.rdata+0x131>
  404124:	61                   	(bad)  
  404125:	6c                   	insb   (%dx),%es:(%rdi)
  404126:	6c                   	insb   (%dx),%es:(%rdi)
  404127:	20 74 6f 20          	and    %dh,0x20(%rdi,%rbp,2)
  40412b:	62                   	(bad)  
  40412c:	65 20 72 65          	and    %dh,%gs:0x65(%rdx)
  404130:	70 72                	jo     4041a4 <.rdata+0x4>
  404132:	65 73 65             	gs jae 40419a <.rdata+0x13a>
  404135:	6e                   	outsb  %ds:(%rsi),(%dx)
  404136:	74 65                	je     40419d <.rdata+0x13d>
  404138:	64 20 28             	and    %ch,%fs:(%rax)
  40413b:	55                   	push   %rbp
  40413c:	4e                   	rex.WRX
  40413d:	44                   	rex.R
  40413e:	45 52                	rex.RB push %r10
  404140:	46                   	rex.RX
  404141:	4c                   	rex.WR
  404142:	4f 57                	rex.WRXB push %r15
  404144:	29 00                	sub    %eax,(%rax)
  404146:	55                   	push   %rbp
  404147:	6e                   	outsb  %ds:(%rsi),(%dx)
  404148:	6b 6e 6f 77          	imul   $0x77,0x6f(%rsi),%ebp
  40414c:	6e                   	outsb  %ds:(%rsi),(%dx)
  40414d:	20 65 72             	and    %ah,0x72(%rbp)
  404150:	72 6f                	jb     4041c1 <.rdata+0x21>
  404152:	72 00                	jb     404154 <.rdata+0xf4>
  404154:	00 00                	add    %al,(%rax)
  404156:	00 00                	add    %al,(%rax)
  404158:	5f                   	pop    %rdi
  404159:	6d                   	insl   (%dx),%es:(%rdi)
  40415a:	61                   	(bad)  
  40415b:	74 68                	je     4041c5 <.rdata+0x25>
  40415d:	65 72 72             	gs jb  4041d2 <.rdata+0x32>
  404160:	28 29                	sub    %ch,(%rcx)
  404162:	3a 20                	cmp    (%rax),%ah
  404164:	25 73 20 69 6e       	and    $0x6e692073,%eax
  404169:	20 25 73 28 25 67    	and    %ah,0x67252873(%rip)        # 676569e2 <.debug_ranges+0x67234522>
  40416f:	2c 20                	sub    $0x20,%al
  404171:	25 67 29 20 20       	and    $0x20202967,%eax
  404176:	28 72 65             	sub    %dh,0x65(%rdx)
  404179:	74 76                	je     4041f1 <.rdata+0x51>
  40417b:	61                   	(bad)  
  40417c:	6c                   	insb   (%dx),%es:(%rdi)
  40417d:	3d 25 67 29 0a       	cmp    $0xa296725,%eax
  404182:	00 00                	add    %al,(%rax)
  404184:	ec                   	in     (%dx),%al
  404185:	d8 ff                	fdivr  %st(7),%st
  404187:	ff 2d d8 ff ff 9c    	ljmpq  *-0x63000028(%rip)        # ffffffff9d404165 <.debug_ranges+0xffffffff9cfe1ca5>
  40418d:	d8 ff                	fdivr  %st(7),%st
  40418f:	ff ac d8 ff ff bc d8 	ljmpq  *-0x27430001(%rax,%rbx,8)
  404196:	ff                   	(bad)  
  404197:	ff cc                	dec    %esp
  404199:	d8 ff                	fdivr  %st(7),%st
  40419b:	ff                   	(bad)  
  40419c:	dc d8                	fnop   
  40419e:	ff                   	(bad)  
  40419f:	ff 4d 69             	decl   0x69(%rbp)

00000000004041a0 <.rdata>:
  4041a0:	4d 69 6e 67 77 2d 77 	imul   $0x36772d77,0x67(%r14),%r13
  4041a7:	36 
  4041a8:	34 20                	xor    $0x20,%al
  4041aa:	72 75                	jb     404221 <.rdata+0x81>
  4041ac:	6e                   	outsb  %ds:(%rsi),(%dx)
  4041ad:	74 69                	je     404218 <.rdata+0x78>
  4041af:	6d                   	insl   (%dx),%es:(%rdi)
  4041b0:	65 20 66 61          	and    %ah,%gs:0x61(%rsi)
  4041b4:	69 6c 75 72 65 3a 0a 	imul   $0xa3a65,0x72(%rbp,%rsi,2),%ebp
  4041bb:	00 
  4041bc:	00 00                	add    %al,(%rax)
  4041be:	00 00                	add    %al,(%rax)
  4041c0:	41                   	rex.B
  4041c1:	64 64 72 65          	fs fs jb 40422a <.rdata+0x8a>
  4041c5:	73 73                	jae    40423a <.rdata+0x9a>
  4041c7:	20 25 70 20 68 61    	and    %ah,0x61682070(%rip)        # 61a8623d <.debug_ranges+0x61663d7d>
  4041cd:	73 20                	jae    4041ef <.rdata+0x4f>
  4041cf:	6e                   	outsb  %ds:(%rsi),(%dx)
  4041d0:	6f                   	outsl  %ds:(%rsi),(%dx)
  4041d1:	20 69 6d             	and    %ch,0x6d(%rcx)
  4041d4:	61                   	(bad)  
  4041d5:	67 65 2d 73 65 63 74 	addr32 gs sub $0x74636573,%eax
  4041dc:	69 6f 6e 00 20 20 56 	imul   $0x56202000,0x6e(%rdi),%ebp
  4041e3:	69 72 74 75 61 6c 51 	imul   $0x516c6175,0x74(%rdx),%esi
  4041ea:	75 65                	jne    404251 <.rdata+0xb1>
  4041ec:	72 79                	jb     404267 <.rdata+0xc7>
  4041ee:	20 66 61             	and    %ah,0x61(%rsi)
  4041f1:	69 6c 65 64 20 66 6f 	imul   $0x726f6620,0x64(%rbp,%riz,2),%ebp
  4041f8:	72 
  4041f9:	20 25 64 20 62 79    	and    %ah,0x79622064(%rip)        # 79a26263 <.debug_ranges+0x79603da3>
  4041ff:	74 65                	je     404266 <.rdata+0xc6>
  404201:	73 20                	jae    404223 <.rdata+0x83>
  404203:	61                   	(bad)  
  404204:	74 20                	je     404226 <.rdata+0x86>
  404206:	61                   	(bad)  
  404207:	64 64 72 65          	fs fs jb 404270 <.rdata+0xd0>
  40420b:	73 73                	jae    404280 <.rdata+0xe0>
  40420d:	20 25 70 00 00 00    	and    %ah,0x70(%rip)        # 404283 <.rdata+0xe3>
  404213:	00 00                	add    %al,(%rax)
  404215:	00 00                	add    %al,(%rax)
  404217:	00 20                	add    %ah,(%rax)
  404219:	20 56 69             	and    %dl,0x69(%rsi)
  40421c:	72 74                	jb     404292 <.rdata+0xf2>
  40421e:	75 61                	jne    404281 <.rdata+0xe1>
  404220:	6c                   	insb   (%dx),%es:(%rdi)
  404221:	50                   	push   %rax
  404222:	72 6f                	jb     404293 <.rdata+0xf3>
  404224:	74 65                	je     40428b <.rdata+0xeb>
  404226:	63 74 20 66          	movslq 0x66(%rax,%riz,1),%esi
  40422a:	61                   	(bad)  
  40422b:	69 6c 65 64 20 77 69 	imul   $0x74697720,0x64(%rbp,%riz,2),%ebp
  404232:	74 
  404233:	68 20 63 6f 64       	pushq  $0x646f6320
  404238:	65 20 30             	and    %dh,%gs:(%rax)
  40423b:	78 25                	js     404262 <.rdata+0xc2>
  40423d:	78 00                	js     40423f <.rdata+0x9f>
  40423f:	00 20                	add    %ah,(%rax)
  404241:	20 55 6e             	and    %dl,0x6e(%rbp)
  404244:	6b 6e 6f 77          	imul   $0x77,0x6f(%rsi),%ebp
  404248:	6e                   	outsb  %ds:(%rsi),(%dx)
  404249:	20 70 73             	and    %dh,0x73(%rax)
  40424c:	65 75 64             	gs jne 4042b3 <.rdata+0x3>
  40424f:	6f                   	outsl  %ds:(%rsi),(%dx)
  404250:	20 72 65             	and    %dh,0x65(%rdx)
  404253:	6c                   	insb   (%dx),%es:(%rdi)
  404254:	6f                   	outsl  %ds:(%rsi),(%dx)
  404255:	63 61 74             	movslq 0x74(%rcx),%esp
  404258:	69 6f 6e 20 70 72 6f 	imul   $0x6f727020,0x6e(%rdi),%ebp
  40425f:	74 6f                	je     4042d0 <__dyn_tls_init_callback>
  404261:	63 6f 6c             	movslq 0x6c(%rdi),%ebp
  404264:	20 76 65             	and    %dh,0x65(%rsi)
  404267:	72 73                	jb     4042dc <__dyn_tls_init_callback+0xc>
  404269:	69 6f 6e 20 25 64 2e 	imul   $0x2e642520,0x6e(%rdi),%ebp
  404270:	0a 00                	or     (%rax),%al
  404272:	00 00                	add    %al,(%rax)
  404274:	00 00                	add    %al,(%rax)
  404276:	00 00                	add    %al,(%rax)
  404278:	20 20                	and    %ah,(%rax)
  40427a:	55                   	push   %rbp
  40427b:	6e                   	outsb  %ds:(%rsi),(%dx)
  40427c:	6b 6e 6f 77          	imul   $0x77,0x6f(%rsi),%ebp
  404280:	6e                   	outsb  %ds:(%rsi),(%dx)
  404281:	20 70 73             	and    %dh,0x73(%rax)
  404284:	65 75 64             	gs jne 4042eb <.refptr._CRT_MT+0xb>
  404287:	6f                   	outsl  %ds:(%rsi),(%dx)
  404288:	20 72 65             	and    %dh,0x65(%rdx)
  40428b:	6c                   	insb   (%dx),%es:(%rdi)
  40428c:	6f                   	outsl  %ds:(%rsi),(%dx)
  40428d:	63 61 74             	movslq 0x74(%rcx),%esp
  404290:	69 6f 6e 20 62 69 74 	imul   $0x74696220,0x6e(%rdi),%ebp
  404297:	20 73 69             	and    %dh,0x69(%rbx)
  40429a:	7a 65                	jp     404301 <.refptr.__CTOR_LIST__+0x1>
  40429c:	20 25 64 2e 0a 00    	and    %ah,0xa2e64(%rip)        # 4a7106 <.debug_ranges+0x84c46>
	...

00000000004042b0 <.rdata>:
  4042b0:	2e 70 64             	jo,pn  404317 <.refptr.__RUNTIME_PSEUDO_RELOC_LIST_END__+0x7>
  4042b3:	61                   	(bad)  
  4042b4:	74 61                	je     404317 <.refptr.__RUNTIME_PSEUDO_RELOC_LIST_END__+0x7>
	...

00000000004042c0 <GS_ExceptionPointers>:
  4042c0:	80 78 40 00          	cmpb   $0x0,0x40(%rax)
  4042c4:	00 00                	add    %al,(%rax)
  4042c6:	00 00                	add    %al,(%rax)
  4042c8:	80 73 40 00          	xorb   $0x0,0x40(%rbx)
  4042cc:	00 00                	add    %al,(%rax)
	...

00000000004042d0 <__dyn_tls_init_callback>:
  4042d0:	a0 26 40 00 00 00 00 	movabs 0x4026,%al
  4042d7:	00 00 
  4042d9:	00 00                	add    %al,(%rax)
  4042db:	00 00                	add    %al,(%rax)
  4042dd:	00 00                	add    %al,(%rax)
	...

00000000004042e0 <.refptr._CRT_MT>:
  4042e0:	40 30 40 00          	xor    %al,0x0(%rax)
	...

00000000004042f0 <.refptr._MINGW_INSTALL_DEBUG_MATHERR>:
  4042f0:	50                   	push   %rax
  4042f1:	30 40 00             	xor    %al,0x0(%rax)
	...

0000000000404300 <.refptr.__CTOR_LIST__>:
  404300:	e0 2f                	loopne 404331 <.refptr.__dyn_tls_init_callback+0x1>
  404302:	40 00 00             	add    %al,(%rax)
	...

0000000000404310 <.refptr.__RUNTIME_PSEUDO_RELOC_LIST_END__>:
  404310:	20 48 40             	and    %cl,0x40(%rax)
	...

0000000000404320 <.refptr.__RUNTIME_PSEUDO_RELOC_LIST__>:
  404320:	20 48 40             	and    %cl,0x40(%rax)
	...

0000000000404330 <.refptr.__dyn_tls_init_callback>:
  404330:	d0 42 40             	rolb   0x40(%rdx)
	...

0000000000404340 <.refptr.__image_base__>:
  404340:	00 00                	add    %al,(%rax)
  404342:	40 00 00             	add    %al,(%rax)
	...

0000000000404350 <.refptr.__imp___initenv>:
  404350:	d4                   	(bad)  
  404351:	82                   	(bad)  
  404352:	40 00 00             	add    %al,(%rax)
	...

0000000000404360 <.refptr.__imp__acmdln>:
  404360:	fc                   	cld    
  404361:	82                   	(bad)  
  404362:	40 00 00             	add    %al,(%rax)
	...

0000000000404370 <.refptr.__imp__fmode>:
  404370:	14 83                	adc    $0x83,%al
  404372:	40 00 00             	add    %al,(%rax)
	...

0000000000404380 <.refptr.__imp__onexit>:
  404380:	2c 83                	sub    $0x83,%al
  404382:	40 00 00             	add    %al,(%rax)
	...

0000000000404390 <.refptr.__mingw_oldexcpt_handler>:
  404390:	80 70 40 00          	xorb   $0x0,0x40(%rax)
	...

00000000004043a0 <.refptr.__native_startup_lock>:
  4043a0:	28 7a 40             	sub    %bh,0x40(%rdx)
	...

00000000004043b0 <.refptr.__native_startup_state>:
  4043b0:	20 7a 40             	and    %bh,0x40(%rdx)
	...

00000000004043c0 <.refptr.__onexitbegin>:
  4043c0:	30 7a 40             	xor    %bh,0x40(%rdx)
	...

00000000004043d0 <.refptr.__onexitend>:
  4043d0:	38 7a 40             	cmp    %bh,0x40(%rdx)
	...

00000000004043e0 <.refptr.__xc_a>:
  4043e0:	00 90 40 00 00 00    	add    %dl,0x40(%rax)
	...

00000000004043f0 <.refptr.__xc_z>:
  4043f0:	10 90 40 00 00 00    	adc    %dl,0x40(%rax)
	...

0000000000404400 <.refptr.__xi_a>:
  404400:	18 90 40 00 00 00    	sbb    %dl,0x40(%rax)
	...

0000000000404410 <.refptr.__xi_z>:
  404410:	30 90 40 00 00 00    	xor    %dl,0x40(%rax)
	...

0000000000404420 <.refptr._dowildcard>:
  404420:	50                   	push   %rax
  404421:	79 40                	jns    404463 <.refptr._newmode+0x3>
	...

0000000000404430 <.refptr._fmode>:
  404430:	70 79                	jo     4044ab <.refptr.mingw_initltsdyn_force+0xb>
  404432:	40 00 00             	add    %al,(%rax)
	...

0000000000404440 <.refptr._gnu_exception_handler>:
  404440:	00 22                	add    %ah,(%rdx)
  404442:	40 00 00             	add    %al,(%rax)
	...

0000000000404450 <.refptr._matherr>:
  404450:	80 19 40             	sbbb   $0x40,(%rcx)
	...

0000000000404460 <.refptr._newmode>:
  404460:	60                   	(bad)  
  404461:	79 40                	jns    4044a3 <.refptr.mingw_initltsdyn_force+0x3>
	...

0000000000404470 <.refptr.mingw_app_type>:
  404470:	30 70 40             	xor    %dh,0x40(%rax)
	...

0000000000404480 <.refptr.mingw_initcharmax>:
  404480:	80 79 40 00          	cmpb   $0x0,0x40(%rcx)
	...

0000000000404490 <.refptr.mingw_initltsdrot_force>:
  404490:	48 79 40             	rex.W jns 4044d3 <.rdata$zzz+0x13>
	...

00000000004044a0 <.refptr.mingw_initltsdyn_force>:
  4044a0:	44 79 40             	rex.R jns 4044e3 <.rdata$zzz+0x3>
	...

00000000004044b0 <.refptr.mingw_initltssuo_force>:
  4044b0:	40 79 40             	rex jns 4044f3 <.rdata$zzz+0x13>
	...

00000000004044c0 <.rdata$zzz>:
  4044c0:	47                   	rex.RXB
  4044c1:	43                   	rex.XB
  4044c2:	43 3a 20             	rex.XB cmp (%r8),%spl
  4044c5:	28 47 4e             	sub    %al,0x4e(%rdi)
  4044c8:	55                   	push   %rbp
  4044c9:	29 20                	sub    %esp,(%rax)
  4044cb:	34 2e                	xor    $0x2e,%al
  4044cd:	39 2e                	cmp    %ebp,(%rsi)
  4044cf:	32 00                	xor    (%rax),%al
	...

00000000004044e0 <.rdata$zzz>:
  4044e0:	47                   	rex.RXB
  4044e1:	43                   	rex.XB
  4044e2:	43 3a 20             	rex.XB cmp (%r8),%spl
  4044e5:	28 47 4e             	sub    %al,0x4e(%rdi)
  4044e8:	55                   	push   %rbp
  4044e9:	29 20                	sub    %esp,(%rax)
  4044eb:	34 2e                	xor    $0x2e,%al
  4044ed:	39 2e                	cmp    %ebp,(%rsi)
  4044ef:	32 00                	xor    (%rax),%al
	...

0000000000404500 <.rdata$zzz>:
  404500:	47                   	rex.RXB
  404501:	43                   	rex.XB
  404502:	43 3a 20             	rex.XB cmp (%r8),%spl
  404505:	28 74 64 6d          	sub    %dh,0x6d(%rsp,%riz,2)
  404509:	36 34 2d             	ss xor $0x2d,%al
  40450c:	31 29                	xor    %ebp,(%rcx)
  40450e:	20 34 2e             	and    %dh,(%rsi,%rbp,1)
  404511:	39 2e                	cmp    %ebp,(%rsi)
  404513:	32 00                	xor    (%rax),%al
	...

0000000000404520 <.rdata$zzz>:
  404520:	47                   	rex.RXB
  404521:	43                   	rex.XB
  404522:	43 3a 20             	rex.XB cmp (%r8),%spl
  404525:	28 47 4e             	sub    %al,0x4e(%rdi)
  404528:	55                   	push   %rbp
  404529:	29 20                	sub    %esp,(%rax)
  40452b:	34 2e                	xor    $0x2e,%al
  40452d:	39 2e                	cmp    %ebp,(%rsi)
  40452f:	32 00                	xor    (%rax),%al
	...

0000000000404540 <.rdata$zzz>:
  404540:	47                   	rex.RXB
  404541:	43                   	rex.XB
  404542:	43 3a 20             	rex.XB cmp (%r8),%spl
  404545:	28 47 4e             	sub    %al,0x4e(%rdi)
  404548:	55                   	push   %rbp
  404549:	29 20                	sub    %esp,(%rax)
  40454b:	34 2e                	xor    $0x2e,%al
  40454d:	39 2e                	cmp    %ebp,(%rsi)
  40454f:	32 00                	xor    (%rax),%al
	...

0000000000404560 <.rdata$zzz>:
  404560:	47                   	rex.RXB
  404561:	43                   	rex.XB
  404562:	43 3a 20             	rex.XB cmp (%r8),%spl
  404565:	28 47 4e             	sub    %al,0x4e(%rdi)
  404568:	55                   	push   %rbp
  404569:	29 20                	sub    %esp,(%rax)
  40456b:	34 2e                	xor    $0x2e,%al
  40456d:	39 2e                	cmp    %ebp,(%rsi)
  40456f:	32 00                	xor    (%rax),%al
	...

0000000000404580 <.rdata$zzz>:
  404580:	47                   	rex.RXB
  404581:	43                   	rex.XB
  404582:	43 3a 20             	rex.XB cmp (%r8),%spl
  404585:	28 47 4e             	sub    %al,0x4e(%rdi)
  404588:	55                   	push   %rbp
  404589:	29 20                	sub    %esp,(%rax)
  40458b:	34 2e                	xor    $0x2e,%al
  40458d:	39 2e                	cmp    %ebp,(%rsi)
  40458f:	32 00                	xor    (%rax),%al
	...

00000000004045a0 <.rdata$zzz>:
  4045a0:	47                   	rex.RXB
  4045a1:	43                   	rex.XB
  4045a2:	43 3a 20             	rex.XB cmp (%r8),%spl
  4045a5:	28 47 4e             	sub    %al,0x4e(%rdi)
  4045a8:	55                   	push   %rbp
  4045a9:	29 20                	sub    %esp,(%rax)
  4045ab:	34 2e                	xor    $0x2e,%al
  4045ad:	39 2e                	cmp    %ebp,(%rsi)
  4045af:	32 00                	xor    (%rax),%al
	...

00000000004045c0 <.rdata$zzz>:
  4045c0:	47                   	rex.RXB
  4045c1:	43                   	rex.XB
  4045c2:	43 3a 20             	rex.XB cmp (%r8),%spl
  4045c5:	28 47 4e             	sub    %al,0x4e(%rdi)
  4045c8:	55                   	push   %rbp
  4045c9:	29 20                	sub    %esp,(%rax)
  4045cb:	34 2e                	xor    $0x2e,%al
  4045cd:	39 2e                	cmp    %ebp,(%rsi)
  4045cf:	32 00                	xor    (%rax),%al
	...

00000000004045e0 <.rdata$zzz>:
  4045e0:	47                   	rex.RXB
  4045e1:	43                   	rex.XB
  4045e2:	43 3a 20             	rex.XB cmp (%r8),%spl
  4045e5:	28 47 4e             	sub    %al,0x4e(%rdi)
  4045e8:	55                   	push   %rbp
  4045e9:	29 20                	sub    %esp,(%rax)
  4045eb:	34 2e                	xor    $0x2e,%al
  4045ed:	39 2e                	cmp    %ebp,(%rsi)
  4045ef:	32 00                	xor    (%rax),%al
	...

0000000000404600 <.rdata$zzz>:
  404600:	47                   	rex.RXB
  404601:	43                   	rex.XB
  404602:	43 3a 20             	rex.XB cmp (%r8),%spl
  404605:	28 47 4e             	sub    %al,0x4e(%rdi)
  404608:	55                   	push   %rbp
  404609:	29 20                	sub    %esp,(%rax)
  40460b:	34 2e                	xor    $0x2e,%al
  40460d:	39 2e                	cmp    %ebp,(%rsi)
  40460f:	32 00                	xor    (%rax),%al
	...

0000000000404620 <.rdata$zzz>:
  404620:	47                   	rex.RXB
  404621:	43                   	rex.XB
  404622:	43 3a 20             	rex.XB cmp (%r8),%spl
  404625:	28 47 4e             	sub    %al,0x4e(%rdi)
  404628:	55                   	push   %rbp
  404629:	29 20                	sub    %esp,(%rax)
  40462b:	34 2e                	xor    $0x2e,%al
  40462d:	39 2e                	cmp    %ebp,(%rsi)
  40462f:	32 00                	xor    (%rax),%al
	...

0000000000404640 <.rdata$zzz>:
  404640:	47                   	rex.RXB
  404641:	43                   	rex.XB
  404642:	43 3a 20             	rex.XB cmp (%r8),%spl
  404645:	28 47 4e             	sub    %al,0x4e(%rdi)
  404648:	55                   	push   %rbp
  404649:	29 20                	sub    %esp,(%rax)
  40464b:	34 2e                	xor    $0x2e,%al
  40464d:	39 2e                	cmp    %ebp,(%rsi)
  40464f:	32 00                	xor    (%rax),%al
	...

0000000000404660 <.rdata$zzz>:
  404660:	47                   	rex.RXB
  404661:	43                   	rex.XB
  404662:	43 3a 20             	rex.XB cmp (%r8),%spl
  404665:	28 47 4e             	sub    %al,0x4e(%rdi)
  404668:	55                   	push   %rbp
  404669:	29 20                	sub    %esp,(%rax)
  40466b:	34 2e                	xor    $0x2e,%al
  40466d:	39 2e                	cmp    %ebp,(%rsi)
  40466f:	32 00                	xor    (%rax),%al
	...

0000000000404680 <.rdata$zzz>:
  404680:	47                   	rex.RXB
  404681:	43                   	rex.XB
  404682:	43 3a 20             	rex.XB cmp (%r8),%spl
  404685:	28 47 4e             	sub    %al,0x4e(%rdi)
  404688:	55                   	push   %rbp
  404689:	29 20                	sub    %esp,(%rax)
  40468b:	34 2e                	xor    $0x2e,%al
  40468d:	39 2e                	cmp    %ebp,(%rsi)
  40468f:	32 00                	xor    (%rax),%al
	...

00000000004046a0 <.rdata$zzz>:
  4046a0:	47                   	rex.RXB
  4046a1:	43                   	rex.XB
  4046a2:	43 3a 20             	rex.XB cmp (%r8),%spl
  4046a5:	28 47 4e             	sub    %al,0x4e(%rdi)
  4046a8:	55                   	push   %rbp
  4046a9:	29 20                	sub    %esp,(%rax)
  4046ab:	34 2e                	xor    $0x2e,%al
  4046ad:	39 2e                	cmp    %ebp,(%rsi)
  4046af:	32 00                	xor    (%rax),%al
	...

00000000004046c0 <.rdata$zzz>:
  4046c0:	47                   	rex.RXB
  4046c1:	43                   	rex.XB
  4046c2:	43 3a 20             	rex.XB cmp (%r8),%spl
  4046c5:	28 47 4e             	sub    %al,0x4e(%rdi)
  4046c8:	55                   	push   %rbp
  4046c9:	29 20                	sub    %esp,(%rax)
  4046cb:	34 2e                	xor    $0x2e,%al
  4046cd:	39 2e                	cmp    %ebp,(%rsi)
  4046cf:	32 00                	xor    (%rax),%al
	...

00000000004046e0 <.rdata$zzz>:
  4046e0:	47                   	rex.RXB
  4046e1:	43                   	rex.XB
  4046e2:	43 3a 20             	rex.XB cmp (%r8),%spl
  4046e5:	28 47 4e             	sub    %al,0x4e(%rdi)
  4046e8:	55                   	push   %rbp
  4046e9:	29 20                	sub    %esp,(%rax)
  4046eb:	34 2e                	xor    $0x2e,%al
  4046ed:	39 2e                	cmp    %ebp,(%rsi)
  4046ef:	32 00                	xor    (%rax),%al
	...

0000000000404700 <.rdata$zzz>:
  404700:	47                   	rex.RXB
  404701:	43                   	rex.XB
  404702:	43 3a 20             	rex.XB cmp (%r8),%spl
  404705:	28 47 4e             	sub    %al,0x4e(%rdi)
  404708:	55                   	push   %rbp
  404709:	29 20                	sub    %esp,(%rax)
  40470b:	34 2e                	xor    $0x2e,%al
  40470d:	39 2e                	cmp    %ebp,(%rsi)
  40470f:	32 00                	xor    (%rax),%al
	...

0000000000404720 <.rdata$zzz>:
  404720:	47                   	rex.RXB
  404721:	43                   	rex.XB
  404722:	43 3a 20             	rex.XB cmp (%r8),%spl
  404725:	28 47 4e             	sub    %al,0x4e(%rdi)
  404728:	55                   	push   %rbp
  404729:	29 20                	sub    %esp,(%rax)
  40472b:	34 2e                	xor    $0x2e,%al
  40472d:	39 2e                	cmp    %ebp,(%rsi)
  40472f:	32 00                	xor    (%rax),%al
	...

0000000000404740 <.rdata$zzz>:
  404740:	47                   	rex.RXB
  404741:	43                   	rex.XB
  404742:	43 3a 20             	rex.XB cmp (%r8),%spl
  404745:	28 47 4e             	sub    %al,0x4e(%rdi)
  404748:	55                   	push   %rbp
  404749:	29 20                	sub    %esp,(%rax)
  40474b:	34 2e                	xor    $0x2e,%al
  40474d:	39 2e                	cmp    %ebp,(%rsi)
  40474f:	32 00                	xor    (%rax),%al
	...

0000000000404760 <.rdata$zzz>:
  404760:	47                   	rex.RXB
  404761:	43                   	rex.XB
  404762:	43 3a 20             	rex.XB cmp (%r8),%spl
  404765:	28 47 4e             	sub    %al,0x4e(%rdi)
  404768:	55                   	push   %rbp
  404769:	29 20                	sub    %esp,(%rax)
  40476b:	34 2e                	xor    $0x2e,%al
  40476d:	39 2e                	cmp    %ebp,(%rsi)
  40476f:	32 00                	xor    (%rax),%al
	...

0000000000404780 <.rdata$zzz>:
  404780:	47                   	rex.RXB
  404781:	43                   	rex.XB
  404782:	43 3a 20             	rex.XB cmp (%r8),%spl
  404785:	28 47 4e             	sub    %al,0x4e(%rdi)
  404788:	55                   	push   %rbp
  404789:	29 20                	sub    %esp,(%rax)
  40478b:	34 2e                	xor    $0x2e,%al
  40478d:	39 2e                	cmp    %ebp,(%rsi)
  40478f:	32 00                	xor    (%rax),%al
	...

00000000004047a0 <.rdata$zzz>:
  4047a0:	47                   	rex.RXB
  4047a1:	43                   	rex.XB
  4047a2:	43 3a 20             	rex.XB cmp (%r8),%spl
  4047a5:	28 74 64 6d          	sub    %dh,0x6d(%rsp,%riz,2)
  4047a9:	36 34 2d             	ss xor $0x2d,%al
  4047ac:	31 29                	xor    %ebp,(%rcx)
  4047ae:	20 34 2e             	and    %dh,(%rsi,%rbp,1)
  4047b1:	39 2e                	cmp    %ebp,(%rsi)
  4047b3:	32 00                	xor    (%rax),%al
	...

00000000004047c0 <.rdata$zzz>:
  4047c0:	47                   	rex.RXB
  4047c1:	43                   	rex.XB
  4047c2:	43 3a 20             	rex.XB cmp (%r8),%spl
  4047c5:	28 47 4e             	sub    %al,0x4e(%rdi)
  4047c8:	55                   	push   %rbp
  4047c9:	29 20                	sub    %esp,(%rax)
  4047cb:	34 2e                	xor    $0x2e,%al
  4047cd:	39 2e                	cmp    %ebp,(%rsi)
  4047cf:	32 00                	xor    (%rax),%al
	...

00000000004047e0 <.rdata$zzz>:
  4047e0:	47                   	rex.RXB
  4047e1:	43                   	rex.XB
  4047e2:	43 3a 20             	rex.XB cmp (%r8),%spl
  4047e5:	28 47 4e             	sub    %al,0x4e(%rdi)
  4047e8:	55                   	push   %rbp
  4047e9:	29 20                	sub    %esp,(%rax)
  4047eb:	34 2e                	xor    $0x2e,%al
  4047ed:	39 2e                	cmp    %ebp,(%rsi)
  4047ef:	32 00                	xor    (%rax),%al
	...

0000000000404800 <.rdata$zzz>:
  404800:	47                   	rex.RXB
  404801:	43                   	rex.XB
  404802:	43 3a 20             	rex.XB cmp (%r8),%spl
  404805:	28 47 4e             	sub    %al,0x4e(%rdi)
  404808:	55                   	push   %rbp
  404809:	29 20                	sub    %esp,(%rax)
  40480b:	34 2e                	xor    $0x2e,%al
  40480d:	39 2e                	cmp    %ebp,(%rsi)
  40480f:	32 00                	xor    (%rax),%al
	...

Disassembly of section .pdata:

0000000000405000 <.pdata>:
  405000:	00 10                	add    %dl,(%rax)
  405002:	00 00                	add    %al,(%rax)
  405004:	01 10                	add    %edx,(%rax)
  405006:	00 00                	add    %al,(%rax)
  405008:	00 60 00             	add    %ah,0x0(%rax)
  40500b:	00 10                	add    %dl,(%rax)
  40500d:	10 00                	adc    %al,(%rax)
  40500f:	00 51 11             	add    %dl,0x11(%rcx)
  405012:	00 00                	add    %al,(%rax)
  405014:	04 60                	add    $0x60,%al
  405016:	00 00                	add    %al,(%rax)
  405018:	60                   	(bad)  
  405019:	11 00                	adc    %eax,(%rax)
  40501b:	00 ae 11 00 00 0c    	add    %ch,0xc000011(%rsi)
  405021:	60                   	(bad)  
  405022:	00 00                	add    %al,(%rax)
  405024:	b0 11                	mov    $0x11,%al
  405026:	00 00                	add    %al,(%rax)
  405028:	ce                   	(bad)  
  405029:	14 00                	adc    $0x0,%al
  40502b:	00 14 60             	add    %dl,(%rax,%riz,2)
  40502e:	00 00                	add    %al,(%rax)
  405030:	d0 14 00             	rclb   (%rax,%rax,1)
  405033:	00 f2                	add    %dh,%dl
  405035:	14 00                	adc    $0x0,%al
  405037:	00 28                	add    %ch,(%rax)
  405039:	60                   	(bad)  
  40503a:	00 00                	add    %al,(%rax)
  40503c:	00 15 00 00 22 15    	add    %dl,0x15220000(%rip)        # 15625042 <.debug_ranges+0x15202b82>
  405042:	00 00                	add    %al,(%rax)
  405044:	48 60                	rex.W (bad) 
	...

0000000000405048 <.pdata>:
  405048:	30 15 00 00 e4 15    	xor    %dl,0x15e40000(%rip)        # 1624504e <.debug_ranges+0x15e22b8e>
  40504e:	00 00                	add    %al,(%rax)
  405050:	68 60 00 00 e4       	pushq  $0xffffffffe4000060
  405055:	15 00 00 ae 16       	adc    $0x16ae0000,%eax
  40505a:	00 00                	add    %al,(%rax)
  40505c:	74 60                	je     4050be <.pdata+0x16>
  40505e:	00 00                	add    %al,(%rax)
  405060:	ae                   	scas   %es:(%rdi),%al
  405061:	16                   	(bad)  
  405062:	00 00                	add    %al,(%rax)
  405064:	8c 17                	mov    %ss,(%rdi)
  405066:	00 00                	add    %al,(%rax)
  405068:	80 60 00 00          	andb   $0x0,0x0(%rax)
  40506c:	8c 17                	mov    %ss,(%rdi)
  40506e:	00 00                	add    %al,(%rax)
  405070:	9e                   	sahf   
  405071:	18 00                	sbb    %al,(%rax)
  405073:	00 8c 60 00 00 9e 18 	add    %cl,0x189e0000(%rax,%riz,2)
  40507a:	00 00                	add    %al,(%rax)
  40507c:	e3 18                	jrcxz  405096 <.pdata+0x12>
  40507e:	00 00                	add    %al,(%rax)
  405080:	98                   	cwtl   
  405081:	60                   	(bad)  
	...

0000000000405084 <.pdata>:
  405084:	f0 18 00             	lock sbb %al,(%rax)
  405087:	00 f4                	add    %dh,%ah
  405089:	18 00                	sbb    %al,(%rax)
  40508b:	00 a4 60 00 00 00 19 	add    %ah,0x19000000(%rax,%riz,2)
  405092:	00 00                	add    %al,(%rax)
  405094:	04 19                	add    $0x19,%al
  405096:	00 00                	add    %al,(%rax)
  405098:	a8 60                	test   $0x60,%al
	...

000000000040509c <.pdata>:
  40509c:	10 19                	adc    %bl,(%rcx)
  40509e:	00 00                	add    %al,(%rax)
  4050a0:	13 19                	adc    (%rcx),%ebx
  4050a2:	00 00                	add    %al,(%rax)
  4050a4:	ac                   	lods   %ds:(%rsi),%al
  4050a5:	60                   	(bad)  
	...

00000000004050a8 <.pdata>:
  4050a8:	20 19                	and    %bl,(%rcx)
  4050aa:	00 00                	add    %al,(%rax)
  4050ac:	61                   	(bad)  
  4050ad:	19 00                	sbb    %eax,(%rax)
  4050af:	00 b0 60 00 00 70    	add    %dh,0x70000060(%rax)
  4050b5:	19 00                	sbb    %eax,(%rax)
  4050b7:	00 7c 19 00          	add    %bh,0x0(%rcx,%rbx,1)
  4050bb:	00 b8 60 00 00 80    	add    %bh,-0x7fffffa0(%rax)
  4050c1:	19 00                	sbb    %eax,(%rax)
  4050c3:	00 7c 1a 00          	add    %bh,0x0(%rdx,%rbx,1)
  4050c7:	00 bc 60 00 00 80 1a 	add    %bh,0x1a800000(%rax,%riz,2)

00000000004050cc <.pdata>:
  4050cc:	80 1a 00             	sbbb   $0x0,(%rdx)
  4050cf:	00 e1                	add    %ah,%cl
  4050d1:	1a 00                	sbb    (%rax),%al
  4050d3:	00 d4                	add    %dl,%ah
  4050d5:	60                   	(bad)  
  4050d6:	00 00                	add    %al,(%rax)
  4050d8:	f0 1a 00             	lock sbb (%rax),%al
  4050db:	00 52 1c             	add    %dl,0x1c(%rdx)
  4050de:	00 00                	add    %al,(%rax)
  4050e0:	e0 60                	loopne 405142 <.pdata+0x22>
  4050e2:	00 00                	add    %al,(%rax)
  4050e4:	60                   	(bad)  
  4050e5:	1c 00                	sbb    $0x0,%al
  4050e7:	00 59 1f             	add    %bl,0x1f(%rcx)
  4050ea:	00 00                	add    %al,(%rax)
  4050ec:	f4                   	hlt    
  4050ed:	60                   	(bad)  
	...

00000000004050f0 <.pdata>:
  4050f0:	60                   	(bad)  
  4050f1:	1f                   	(bad)  
  4050f2:	00 00                	add    %al,(%rax)
  4050f4:	06                   	(bad)  
  4050f5:	21 00                	and    %eax,(%rax)
  4050f7:	00 0c 61             	add    %cl,(%rcx,%riz,2)
  4050fa:	00 00                	add    %al,(%rax)
  4050fc:	10 21                	adc    %ah,(%rcx)
  4050fe:	00 00                	add    %al,(%rax)
  405100:	fc                   	cld    
  405101:	21 00                	and    %eax,(%rax)
  405103:	00 14 61             	add    %dl,(%rcx,%riz,2)
  405106:	00 00                	add    %al,(%rax)
  405108:	00 22                	add    %ah,(%rdx)
  40510a:	00 00                	add    %al,(%rax)
  40510c:	b8 23 00 00 24       	mov    $0x24000023,%eax
  405111:	61                   	(bad)  
	...

0000000000405114 <.pdata>:
  405114:	c0 23 00             	shlb   $0x0,(%rbx)
  405117:	00 c3                	add    %al,%bl
  405119:	23 00                	and    (%rax),%eax
  40511b:	00 2c 61             	add    %ch,(%rcx,%riz,2)
	...

0000000000405120 <.pdata>:
  405120:	d0 23                	shlb   (%rbx)
  405122:	00 00                	add    %al,(%rax)
  405124:	05 24 00 00 30       	add    $0x30000024,%eax
  405129:	61                   	(bad)  
  40512a:	00 00                	add    %al,(%rax)
  40512c:	10 24 00             	adc    %ah,(%rax,%rax,1)
  40512f:	00 65 24             	add    %ah,0x24(%rbp)
  405132:	00 00                	add    %al,(%rax)
  405134:	38 61 00             	cmp    %ah,0x0(%rcx)
  405137:	00 70 24             	add    %dh,0x24(%rax)
  40513a:	00 00                	add    %al,(%rax)
  40513c:	8c 24 00             	mov    %fs,(%rax,%rax,1)
  40513f:	00 44 61 00          	add    %al,0x0(%rcx,%riz,2)
	...

0000000000405144 <.pdata>:
  405144:	90                   	nop
  405145:	24 00                	and    $0x0,%al
  405147:	00 66 25             	add    %ah,0x25(%rsi)
  40514a:	00 00                	add    %al,(%rax)
  40514c:	48 61                	rex.W (bad) 
  40514e:	00 00                	add    %al,(%rax)
  405150:	70 25                	jo     405177 <.pdata+0x1b>
  405152:	00 00                	add    %al,(%rax)
  405154:	6b 26 00             	imul   $0x0,(%rsi),%esp
  405157:	00 58 61             	add    %bl,0x61(%rax)
	...

000000000040515c <.pdata>:
  40515c:	70 26                	jo     405184 <.pdata+0x4>
  40515e:	00 00                	add    %al,(%rax)
  405160:	9f                   	lahf   
  405161:	26 00 00             	add    %al,%es:(%rax)
  405164:	68 61 00 00 a0       	pushq  $0xffffffffa0000061
  405169:	26 00 00             	add    %al,%es:(%rax)
  40516c:	09 27                	or     %esp,(%rdi)
  40516e:	00 00                	add    %al,(%rax)
  405170:	70 61                	jo     4051d3 <.pdata+0x2f>
  405172:	00 00                	add    %al,(%rax)
  405174:	10 27                	adc    %ah,(%rdi)
  405176:	00 00                	add    %al,(%rax)
  405178:	13 27                	adc    (%rdi),%esp
  40517a:	00 00                	add    %al,(%rax)
  40517c:	7c 61                	jl     4051df <.pdata+0x3b>
	...

0000000000405180 <.pdata>:
  405180:	20 27                	and    %ah,(%rdi)
  405182:	00 00                	add    %al,(%rax)
  405184:	c7                   	(bad)  
  405185:	27                   	(bad)  
  405186:	00 00                	add    %al,(%rax)
  405188:	80 61 00 00          	andb   $0x0,0x0(%rcx)
  40518c:	d0 27                	shlb   (%rdi)
  40518e:	00 00                	add    %al,(%rax)
  405190:	e9 27 00 00 88       	jmpq   ffffffff884051bc <.debug_ranges+0xffffffff87fe2cfc>
  405195:	61                   	(bad)  
	...

0000000000405198 <.pdata>:
  405198:	f0 27                	lock (bad) 
  40519a:	00 00                	add    %al,(%rax)
  40519c:	fa                   	cli    
  40519d:	27                   	(bad)  
  40519e:	00 00                	add    %al,(%rax)
  4051a0:	90                   	nop
  4051a1:	61                   	(bad)  
	...

00000000004051a4 <.pdata>:
  4051a4:	00 28                	add    %ch,(%rax)
  4051a6:	00 00                	add    %al,(%rax)
  4051a8:	1f                   	(bad)  
  4051a9:	28 00                	sub    %al,(%rax)
  4051ab:	00 94 61 00 00 20 28 	add    %dl,0x28200000(%rcx,%riz,2)
  4051b2:	00 00                	add    %al,(%rax)
  4051b4:	32 28                	xor    (%rax),%ch
  4051b6:	00 00                	add    %al,(%rax)
  4051b8:	98                   	cwtl   
  4051b9:	61                   	(bad)  
  4051ba:	00 00                	add    %al,(%rax)
  4051bc:	40 28 00             	sub    %al,(%rax)
  4051bf:	00 85 28 00 00 9c    	add    %al,-0x63ffffd8(%rbp)
  4051c5:	61                   	(bad)  
  4051c6:	00 00                	add    %al,(%rax)
  4051c8:	90                   	nop
  4051c9:	28 00                	sub    %al,(%rax)
  4051cb:	00 2e                	add    %ch,(%rsi)
  4051cd:	29 00                	sub    %eax,(%rax)
  4051cf:	00 a0 61 00 00 30    	add    %ah,0x30000061(%rax)
  4051d5:	29 00                	sub    %eax,(%rax)
  4051d7:	00 73 29             	add    %dh,0x29(%rbx)
  4051da:	00 00                	add    %al,(%rax)
  4051dc:	ac                   	lods   %ds:(%rsi),%al
  4051dd:	61                   	(bad)  
  4051de:	00 00                	add    %al,(%rax)
  4051e0:	80 29 00             	subb   $0x0,(%rcx)
  4051e3:	00 bb 29 00 00 b8    	add    %bh,-0x47ffffd7(%rbx)
  4051e9:	61                   	(bad)  
  4051ea:	00 00                	add    %al,(%rax)
  4051ec:	c0 29 00             	shrb   $0x0,(%rcx)
  4051ef:	00 4e 2a             	add    %cl,0x2a(%rsi)
  4051f2:	00 00                	add    %al,(%rax)
  4051f4:	c0 61 00 00          	shlb   $0x0,0x0(%rcx)
  4051f8:	50                   	push   %rax
  4051f9:	2a 00                	sub    (%rax),%al
  4051fb:	00 88 2a 00 00 cc    	add    %cl,-0x33ffffd6(%rax)
  405201:	61                   	(bad)  
  405202:	00 00                	add    %al,(%rax)
  405204:	90                   	nop
  405205:	2a 00                	sub    (%rax),%al
  405207:	00 e5                	add    %ah,%ch
  405209:	2a 00                	sub    (%rax),%al
  40520b:	00 d8                	add    %bl,%al
  40520d:	61                   	(bad)  
  40520e:	00 00                	add    %al,(%rax)
  405210:	f0 2a 00             	lock sub (%rax),%al
  405213:	00 9e 2b 00 00 e4    	add    %bl,-0x1bffffd5(%rsi)
  405219:	61                   	(bad)  
	...

000000000040521c <.pdata>:
  40521c:	a0 2b 00 00 0d 2c 00 	movabs 0xf400002c0d00002b,%al
  405223:	00 f4 
  405225:	61                   	(bad)  
  405226:	00 00                	add    %al,(%rax)
  405228:	10 2c 00             	adc    %ch,(%rax,%rax,1)
  40522b:	00 8f 2c 00 00 04    	add    %cl,0x400002c(%rdi)
  405231:	62                   	(bad)  
  405232:	00 00                	add    %al,(%rax)
  405234:	90                   	nop
  405235:	2c 00                	sub    $0x0,%al
  405237:	00 2f                	add    %ch,(%rdi)
  405239:	2d 00 00 10 62       	sub    $0x62100000,%eax
  40523e:	00 00                	add    %al,(%rax)
  405240:	30 2d 00 00 c7 2d    	xor    %ch,0x2dc70000(%rip)        # 2e075246 <.debug_ranges+0x2dc52d86>
  405246:	00 00                	add    %al,(%rax)
  405248:	18 62 00             	sbb    %ah,0x0(%rdx)
	...

000000000040524c <.pdata>:
  40524c:	30 2e                	xor    %ch,(%rsi)
  40524e:	00 00                	add    %al,(%rax)
  405250:	38 2e                	cmp    %ch,(%rsi)
  405252:	00 00                	add    %al,(%rax)
  405254:	20 62 00             	and    %ah,0x0(%rdx)
  405257:	00 40 2e             	add    %al,0x2e(%rax)
  40525a:	00 00                	add    %al,(%rax)
  40525c:	4b                   	rex.WXB
  40525d:	2e 00 00             	add    %al,%cs:(%rax)
  405260:	24 62                	and    $0x62,%al
	...

Disassembly of section .xdata:

0000000000406000 <.xdata>:
  406000:	01 00                	add    %eax,(%rax)
  406002:	00 00                	add    %al,(%rax)
  406004:	01 04 01             	add    %eax,(%rcx,%rax,1)
  406007:	00 04 42             	add    %al,(%rdx,%rax,2)
  40600a:	00 00                	add    %al,(%rax)
  40600c:	01 04 01             	add    %eax,(%rcx,%rax,1)
  40600f:	00 04 62             	add    %al,(%rdx,%riz,2)
  406012:	00 00                	add    %al,(%rax)
  406014:	01 0f                	add    %ecx,(%rdi)
  406016:	08 00                	or     %al,(%rax)
  406018:	0f 01 13             	lgdt   (%rbx)
  40601b:	00 08                	add    %cl,(%rax)
  40601d:	30 07                	xor    %al,(%rdi)
  40601f:	60                   	(bad)  
  406020:	06                   	(bad)  
  406021:	70 05                	jo     406028 <.xdata+0x28>
  406023:	50                   	push   %rax
  406024:	04 c0                	add    $0xc0,%al
  406026:	02 d0                	add    %al,%dl
  406028:	09 04 01             	or     %eax,(%rcx,%rax,1)
  40602b:	00 04 42             	add    %al,(%rdx,%rax,2)
  40602e:	00 00                	add    %al,(%rax)
  406030:	10 2e                	adc    %ch,(%rsi)
  406032:	00 00                	add    %al,(%rax)
  406034:	01 00                	add    %eax,(%rax)
  406036:	00 00                	add    %al,(%rax)
  406038:	d4                   	(bad)  
  406039:	14 00                	adc    $0x0,%al
  40603b:	00 ec                	add    %ch,%ah
  40603d:	14 00                	adc    $0x0,%al
  40603f:	00 00                	add    %al,(%rax)
  406041:	22 00                	and    (%rax),%al
  406043:	00 ec                	add    %ch,%ah
  406045:	14 00                	adc    $0x0,%al
  406047:	00 09                	add    %cl,(%rcx)
  406049:	04 01                	add    $0x1,%al
  40604b:	00 04 42             	add    %al,(%rdx,%rax,2)
  40604e:	00 00                	add    %al,(%rax)
  406050:	10 2e                	adc    %ch,(%rsi)
  406052:	00 00                	add    %al,(%rax)
  406054:	01 00                	add    %eax,(%rax)
  406056:	00 00                	add    %al,(%rax)
  406058:	04 15                	add    $0x15,%al
  40605a:	00 00                	add    %al,(%rax)
  40605c:	1c 15                	sbb    $0x15,%al
  40605e:	00 00                	add    %al,(%rax)
  406060:	00 22                	add    %ah,(%rdx)
  406062:	00 00                	add    %al,(%rax)
  406064:	1c 15                	sbb    $0x15,%al
	...

0000000000406068 <.xdata>:
  406068:	01 0b                	add    %ecx,(%rbx)
  40606a:	04 05                	add    $0x5,%al
  40606c:	0b 01                	or     (%rcx),%eax
  40606e:	12 00                	adc    (%rax),%al
  406070:	04 03                	add    $0x3,%al
  406072:	01 50 01             	add    %edx,0x1(%rax)
  406075:	08 03                	or     %al,(%rbx)
  406077:	05 08 92 04 03       	add    $0x3049208,%eax
  40607c:	01 50 00             	add    %edx,0x0(%rax)
  40607f:	00 01                	add    %al,(%rcx)
  406081:	08 03                	or     %al,(%rbx)
  406083:	05 08 12 04 03       	add    $0x3041208,%eax
  406088:	01 50 00             	add    %edx,0x0(%rax)
  40608b:	00 01                	add    %al,(%rcx)
  40608d:	08 03                	or     %al,(%rbx)
  40608f:	05 08 72 04 03       	add    $0x3047208,%eax
  406094:	01 50 00             	add    %edx,0x0(%rax)
  406097:	00 01                	add    %al,(%rcx)
  406099:	08 03                	or     %al,(%rbx)
  40609b:	05 08 52 04 03       	add    $0x3045208,%eax
  4060a0:	01 50 00             	add    %edx,0x0(%rax)
	...

00000000004060a4 <.xdata>:
  4060a4:	01 00                	add    %eax,(%rax)
  4060a6:	00 00                	add    %al,(%rax)
  4060a8:	01 00                	add    %eax,(%rax)
	...

00000000004060ac <.xdata>:
  4060ac:	01 00                	add    %eax,(%rax)
	...

00000000004060b0 <.xdata>:
  4060b0:	01 04 01             	add    %eax,(%rcx,%rax,1)
  4060b3:	00 04 a2             	add    %al,(%rdx,%riz,4)
  4060b6:	00 00                	add    %al,(%rax)
  4060b8:	01 00                	add    %eax,(%rax)
  4060ba:	00 00                	add    %al,(%rax)
  4060bc:	01 16                	add    %edx,(%rsi)
  4060be:	09 00                	or     %eax,(%rax)
  4060c0:	16                   	(bad)  
  4060c1:	88 06                	mov    %al,(%rsi)
  4060c3:	00 10                	add    %dl,(%rax)
  4060c5:	78 05                	js     4060cc <.xdata+0x1c>
  4060c7:	00 0b                	add    %cl,(%rbx)
  4060c9:	68 04 00 06 e2       	pushq  $0xffffffffe2060004
  4060ce:	02 30                	add    (%rax),%dh
  4060d0:	01 60 00             	add    %esp,0x0(%rax)
	...

00000000004060d4 <.xdata>:
  4060d4:	01 06                	add    %eax,(%rsi)
  4060d6:	03 00                	add    (%rax),%eax
  4060d8:	06                   	(bad)  
  4060d9:	62 02                	(bad)  
  4060db:	30 01                	xor    %al,(%rcx)
  4060dd:	60                   	(bad)  
  4060de:	00 00                	add    %al,(%rax)
  4060e0:	01 0c 07             	add    %ecx,(%rdi,%rax,1)
  4060e3:	00 0c a2             	add    %cl,(%rdx,%riz,4)
  4060e6:	08 30                	or     %dh,(%rax)
  4060e8:	07                   	(bad)  
  4060e9:	60                   	(bad)  
  4060ea:	06                   	(bad)  
  4060eb:	70 05                	jo     4060f2 <.xdata+0x1e>
  4060ed:	50                   	push   %rax
  4060ee:	04 c0                	add    $0xc0,%al
  4060f0:	02 d0                	add    %al,%dl
  4060f2:	00 00                	add    %al,(%rax)
  4060f4:	01 11                	add    %edx,(%rcx)
  4060f6:	09 05 11 b2 0d 03    	or     %eax,0x30db211(%rip)        # 34e130d <.debug_ranges+0x30bee4d>
  4060fc:	0a 30                	or     (%rax),%dh
  4060fe:	09 60 08             	or     %esp,0x8(%rax)
  406101:	70 07                	jo     40610a <.xdata+0x36>
  406103:	c0 05 d0 03 e0 01 50 	rolb   $0x50,0x1e003d0(%rip)        # 22064da <.debug_ranges+0x1de401a>
	...

000000000040610c <.xdata>:
  40610c:	01 04 01             	add    %eax,(%rcx,%rax,1)
  40610f:	00 04 42             	add    %al,(%rdx,%rax,2)
  406112:	00 00                	add    %al,(%rax)
  406114:	01 0a                	add    %ecx,(%rdx)
  406116:	06                   	(bad)  
  406117:	00 0a                	add    %cl,(%rdx)
  406119:	32 06                	xor    (%rsi),%al
  40611b:	30 05 60 04 70 03    	xor    %al,0x3700460(%rip)        # 3b06581 <.debug_ranges+0x36e40c1>
  406121:	50                   	push   %rax
  406122:	02 c0                	add    %al,%al
  406124:	01 05 02 00 05 32    	add    %eax,0x32050002(%rip)        # 3245612c <.debug_ranges+0x32033c6c>
  40612a:	01 30                	add    %esi,(%rax)

000000000040612c <.xdata>:
  40612c:	01 00                	add    %eax,(%rax)
	...

0000000000406130 <.xdata>:
  406130:	01 04 01             	add    %eax,(%rcx,%rax,1)
  406133:	00 04 42             	add    %al,(%rdx,%rax,2)
  406136:	00 00                	add    %al,(%rax)
  406138:	01 06                	add    %eax,(%rsi)
  40613a:	03 00                	add    (%rax),%eax
  40613c:	06                   	(bad)  
  40613d:	42 02 30             	rex.X add (%rax),%sil
  406140:	01 60 00             	add    %esp,0x0(%rax)
  406143:	00 01                	add    %al,(%rcx)
  406145:	00 00                	add    %al,(%rax)
	...

0000000000406148 <.xdata>:
  406148:	01 0a                	add    %ecx,(%rdx)
  40614a:	06                   	(bad)  
  40614b:	00 0a                	add    %cl,(%rdx)
  40614d:	72 06                	jb     406155 <.xdata+0xd>
  40614f:	30 05 60 04 70 03    	xor    %al,0x3700460(%rip)        # 3b065b5 <.debug_ranges+0x36e40f5>
  406155:	50                   	push   %rax
  406156:	02 c0                	add    %al,%al
  406158:	01 0a                	add    %ecx,(%rdx)
  40615a:	05 05 0a d2 06       	add    $0x6d20a05,%eax
  40615f:	03 03                	add    (%rbx),%eax
  406161:	30 02                	xor    %al,(%rdx)
  406163:	60                   	(bad)  
  406164:	01 50 00             	add    %edx,0x0(%rax)
	...

0000000000406168 <.xdata>:
  406168:	01 04 01             	add    %eax,(%rcx,%rax,1)
  40616b:	00 04 42             	add    %al,(%rdx,%rax,2)
  40616e:	00 00                	add    %al,(%rax)
  406170:	01 06                	add    %eax,(%rsi)
  406172:	03 00                	add    (%rax),%eax
  406174:	06                   	(bad)  
  406175:	42 02 30             	rex.X add (%rax),%sil
  406178:	01 60 00             	add    %esp,0x0(%rax)
  40617b:	00 01                	add    %al,(%rcx)
  40617d:	00 00                	add    %al,(%rax)
	...

0000000000406180 <.xdata>:
  406180:	01 05 02 00 05 52    	add    %eax,0x52050002(%rip)        # 52456188 <.debug_ranges+0x52033cc8>
  406186:	01 30                	add    %esi,(%rax)
  406188:	01 04 01             	add    %eax,(%rcx,%rax,1)
  40618b:	00 04 42             	add    %al,(%rdx,%rax,2)
	...

0000000000406190 <.xdata>:
  406190:	01 00                	add    %eax,(%rax)
	...

0000000000406194 <.xdata>:
  406194:	01 00                	add    %eax,(%rax)
  406196:	00 00                	add    %al,(%rax)
  406198:	01 00                	add    %eax,(%rax)
  40619a:	00 00                	add    %al,(%rax)
  40619c:	01 00                	add    %eax,(%rax)
  40619e:	00 00                	add    %al,(%rax)
  4061a0:	01 07                	add    %eax,(%rdi)
  4061a2:	04 00                	add    $0x0,%al
  4061a4:	07                   	(bad)  
  4061a5:	32 03                	xor    (%rbx),%al
  4061a7:	30 02                	xor    %al,(%rdx)
  4061a9:	60                   	(bad)  
  4061aa:	01 70 01             	add    %esi,0x1(%rax)
  4061ad:	06                   	(bad)  
  4061ae:	03 00                	add    (%rax),%eax
  4061b0:	06                   	(bad)  
  4061b1:	42 02 30             	rex.X add (%rax),%sil
  4061b4:	01 60 00             	add    %esp,0x0(%rax)
  4061b7:	00 01                	add    %al,(%rcx)
  4061b9:	05 02 00 05 32       	add    $0x32050002,%eax
  4061be:	01 30                	add    %esi,(%rax)
  4061c0:	01 07                	add    %eax,(%rdi)
  4061c2:	04 00                	add    $0x0,%al
  4061c4:	07                   	(bad)  
  4061c5:	32 03                	xor    (%rbx),%al
  4061c7:	30 02                	xor    %al,(%rdx)
  4061c9:	60                   	(bad)  
  4061ca:	01 70 01             	add    %esi,0x1(%rax)
  4061cd:	06                   	(bad)  
  4061ce:	03 00                	add    (%rax),%eax
  4061d0:	06                   	(bad)  
  4061d1:	42 02 30             	rex.X add (%rax),%sil
  4061d4:	01 60 00             	add    %esp,0x0(%rax)
  4061d7:	00 01                	add    %al,(%rcx)
  4061d9:	06                   	(bad)  
  4061da:	03 00                	add    (%rax),%eax
  4061dc:	06                   	(bad)  
  4061dd:	42 02 30             	rex.X add (%rax),%sil
  4061e0:	01 60 00             	add    %esp,0x0(%rax)
  4061e3:	00 01                	add    %al,(%rcx)
  4061e5:	08 05 00 08 42 04    	or     %al,0x4420800(%rip)        # 48269eb <.debug_ranges+0x440452b>
  4061eb:	30 03                	xor    %al,(%rbx)
  4061ed:	60                   	(bad)  
  4061ee:	02 70 01             	add    0x1(%rax),%dh
  4061f1:	50                   	push   %rax
	...

00000000004061f4 <.xdata>:
  4061f4:	01 08                	add    %ecx,(%rax)
  4061f6:	05 00 08 42 04       	add    $0x4420800,%eax
  4061fb:	30 03                	xor    %al,(%rbx)
  4061fd:	60                   	(bad)  
  4061fe:	02 70 01             	add    0x1(%rax),%dh
  406201:	50                   	push   %rax
  406202:	00 00                	add    %al,(%rax)
  406204:	01 07                	add    %eax,(%rdi)
  406206:	04 00                	add    $0x0,%al
  406208:	07                   	(bad)  
  406209:	32 03                	xor    (%rbx),%al
  40620b:	30 02                	xor    %al,(%rdx)
  40620d:	60                   	(bad)  
  40620e:	01 70 01             	add    %esi,0x1(%rax)
  406211:	05 02 00 05 32       	add    $0x32050002,%eax
  406216:	01 30                	add    %esi,(%rax)
  406218:	01 04 01             	add    %eax,(%rcx,%rax,1)
  40621b:	00 04 42             	add    %al,(%rdx,%rax,2)
	...

0000000000406220 <.xdata>:
  406220:	01 00                	add    %eax,(%rax)
  406222:	00 00                	add    %al,(%rax)
  406224:	01 00                	add    %eax,(%rax)
	...

Disassembly of section .idata:

0000000000408000 <_head_lib64_libkernel32_a>:
  408000:	3c 80                	cmp    $0x80,%al
	...
  40800a:	00 00                	add    %al,(%rax)
  40800c:	68 87 00 00 fc       	pushq  $0xfffffffffc000087
  408011:	81 00 00 fc 80 00    	addl   $0x80fc00,(%rax)

0000000000408014 <_head_lib64_libmsvcrt_a>:
  408014:	fc                   	cld    
  408015:	80 00 00             	addb   $0x0,(%rax)
	...
  408020:	f4                   	hlt    
  408021:	87 00                	xchg   %eax,(%rax)
  408023:	00 bc 82 00 00 00 00 	add    %bh,0x0(%rdx,%rax,4)
	...

000000000040803c <hname>:
  40803c:	bc 83 00 00 00       	mov    $0x83,%esp
  408041:	00 00                	add    %al,(%rax)
	...

0000000000408044 <.idata$4>:
  408044:	d4                   	(bad)  
  408045:	83 00 00             	addl   $0x0,(%rax)
  408048:	00 00                	add    %al,(%rax)
	...

000000000040804c <.idata$4>:
  40804c:	ec                   	in     (%dx),%al
  40804d:	83 00 00             	addl   $0x0,(%rax)
  408050:	00 00                	add    %al,(%rax)
	...

0000000000408054 <.idata$4>:
  408054:	00 84 00 00 00 00 00 	add    %al,0x0(%rax,%rax,1)
	...

000000000040805c <.idata$4>:
  40805c:	16                   	(bad)  
  40805d:	84 00                	test   %al,(%rax)
  40805f:	00 00                	add    %al,(%rax)
  408061:	00 00                	add    %al,(%rax)
	...

0000000000408064 <.idata$4>:
  408064:	2c 84                	sub    $0x84,%al
  408066:	00 00                	add    %al,(%rax)
  408068:	00 00                	add    %al,(%rax)
	...

000000000040806c <.idata$4>:
  40806c:	3c 84                	cmp    $0x84,%al
  40806e:	00 00                	add    %al,(%rax)
  408070:	00 00                	add    %al,(%rax)
	...

0000000000408074 <.idata$4>:
  408074:	4e 84 00             	rex.WRX test %r8b,(%rax)
  408077:	00 00                	add    %al,(%rax)
  408079:	00 00                	add    %al,(%rax)
	...

000000000040807c <.idata$4>:
  40807c:	68 84 00 00 00       	pushq  $0x84
  408081:	00 00                	add    %al,(%rax)
	...

0000000000408084 <.idata$4>:
  408084:	78 84                	js     40800a <_head_lib64_libkernel32_a+0xa>
  408086:	00 00                	add    %al,(%rax)
  408088:	00 00                	add    %al,(%rax)
	...

000000000040808c <.idata$4>:
  40808c:	94                   	xchg   %eax,%esp
  40808d:	84 00                	test   %al,(%rax)
  40808f:	00 00                	add    %al,(%rax)
  408091:	00 00                	add    %al,(%rax)
	...

0000000000408094 <.idata$4>:
  408094:	ac                   	lods   %ds:(%rsi),%al
  408095:	84 00                	test   %al,(%rax)
  408097:	00 00                	add    %al,(%rax)
  408099:	00 00                	add    %al,(%rax)
	...

000000000040809c <.idata$4>:
  40809c:	c6 84 00 00 00 00 00 	movb   $0x0,0x0(%rax,%rax,1)
  4080a3:	00 

00000000004080a4 <.idata$4>:
  4080a4:	dc 84 00 00 00 00 00 	faddl  0x0(%rax,%rax,1)
	...

00000000004080ac <.idata$4>:
  4080ac:	f0 84 00             	lock test %al,(%rax)
  4080af:	00 00                	add    %al,(%rax)
  4080b1:	00 00                	add    %al,(%rax)
	...

00000000004080b4 <.idata$4>:
  4080b4:	0a 85 00 00 00 00    	or     0x0(%rbp),%al
	...

00000000004080bc <.idata$4>:
  4080bc:	1e                   	(bad)  
  4080bd:	85 00                	test   %eax,(%rax)
  4080bf:	00 00                	add    %al,(%rax)
  4080c1:	00 00                	add    %al,(%rax)
	...

00000000004080c4 <.idata$4>:
  4080c4:	3c 85                	cmp    $0x85,%al
  4080c6:	00 00                	add    %al,(%rax)
  4080c8:	00 00                	add    %al,(%rax)
	...

00000000004080cc <.idata$4>:
  4080cc:	44 85 00             	test   %r8d,(%rax)
  4080cf:	00 00                	add    %al,(%rax)
  4080d1:	00 00                	add    %al,(%rax)
	...

00000000004080d4 <.idata$4>:
  4080d4:	58                   	pop    %rax
  4080d5:	85 00                	test   %eax,(%rax)
  4080d7:	00 00                	add    %al,(%rax)
  4080d9:	00 00                	add    %al,(%rax)
	...

00000000004080dc <.idata$4>:
  4080dc:	66 85 00             	test   %ax,(%rax)
  4080df:	00 00                	add    %al,(%rax)
  4080e1:	00 00                	add    %al,(%rax)
	...

00000000004080e4 <.idata$4>:
  4080e4:	82                   	(bad)  
  4080e5:	85 00                	test   %eax,(%rax)
  4080e7:	00 00                	add    %al,(%rax)
  4080e9:	00 00                	add    %al,(%rax)
	...

00000000004080ec <.idata$4>:
  4080ec:	94                   	xchg   %eax,%esp
  4080ed:	85 00                	test   %eax,(%rax)
  4080ef:	00 00                	add    %al,(%rax)
  4080f1:	00 00                	add    %al,(%rax)
	...

00000000004080f4 <.idata$4>:
	...

00000000004080fc <hname>:
  4080fc:	a4                   	movsb  %ds:(%rsi),%es:(%rdi)
  4080fd:	85 00                	test   %eax,(%rax)
  4080ff:	00 00                	add    %al,(%rax)
  408101:	00 00                	add    %al,(%rax)
	...

0000000000408104 <.idata$4>:
  408104:	bc 85 00 00 00       	mov    $0x85,%esp
  408109:	00 00                	add    %al,(%rax)
	...

000000000040810c <.idata$4>:
  40810c:	ca 85 00             	lret   $0x85
  40810f:	00 00                	add    %al,(%rax)
  408111:	00 00                	add    %al,(%rax)
	...

0000000000408114 <.idata$4>:
  408114:	da 85 00 00 00 00    	fiaddl 0x0(%rbp)
	...

000000000040811c <.idata$4>:
  40811c:	e6 85                	out    %al,$0x85
  40811e:	00 00                	add    %al,(%rax)
  408120:	00 00                	add    %al,(%rax)
	...

0000000000408124 <.idata$4>:
  408124:	f4                   	hlt    
  408125:	85 00                	test   %eax,(%rax)
  408127:	00 00                	add    %al,(%rax)
  408129:	00 00                	add    %al,(%rax)
	...

000000000040812c <.idata$4>:
  40812c:	04 86                	add    $0x86,%al
  40812e:	00 00                	add    %al,(%rax)
  408130:	00 00                	add    %al,(%rax)
	...

0000000000408134 <.idata$4>:
  408134:	16                   	(bad)  
  408135:	86 00                	xchg   %al,(%rax)
  408137:	00 00                	add    %al,(%rax)
  408139:	00 00                	add    %al,(%rax)
	...

000000000040813c <.idata$4>:
  40813c:	2a 86 00 00 00 00    	sub    0x0(%rsi),%al
	...

0000000000408144 <.idata$4>:
  408144:	34 86                	xor    $0x86,%al
  408146:	00 00                	add    %al,(%rax)
  408148:	00 00                	add    %al,(%rax)
	...

000000000040814c <.idata$4>:
  40814c:	42 86 00             	rex.X xchg %al,(%rax)
  40814f:	00 00                	add    %al,(%rax)
  408151:	00 00                	add    %al,(%rax)
	...

0000000000408154 <.idata$4>:
  408154:	4c 86 00             	rex.WR xchg %r8b,(%rax)
  408157:	00 00                	add    %al,(%rax)
  408159:	00 00                	add    %al,(%rax)
	...

000000000040815c <.idata$4>:
  40815c:	56                   	push   %rsi
  40815d:	86 00                	xchg   %al,(%rax)
  40815f:	00 00                	add    %al,(%rax)
  408161:	00 00                	add    %al,(%rax)
	...

0000000000408164 <.idata$4>:
  408164:	62                   	(bad)  
  408165:	86 00                	xchg   %al,(%rax)
  408167:	00 00                	add    %al,(%rax)
  408169:	00 00                	add    %al,(%rax)
	...

000000000040816c <.idata$4>:
  40816c:	6a 86                	pushq  $0xffffffffffffff86
  40816e:	00 00                	add    %al,(%rax)
  408170:	00 00                	add    %al,(%rax)
	...

0000000000408174 <.idata$4>:
  408174:	74 86                	je     4080fc <hname>
  408176:	00 00                	add    %al,(%rax)
  408178:	00 00                	add    %al,(%rax)
	...

000000000040817c <.idata$4>:
  40817c:	7e 86                	jle    408104 <.idata$4>
  40817e:	00 00                	add    %al,(%rax)
  408180:	00 00                	add    %al,(%rax)
	...

0000000000408184 <.idata$4>:
  408184:	86 86 00 00 00 00    	xchg   %al,0x0(%rsi)
	...

000000000040818c <.idata$4>:
  40818c:	90                   	nop
  40818d:	86 00                	xchg   %al,(%rax)
  40818f:	00 00                	add    %al,(%rax)
  408191:	00 00                	add    %al,(%rax)
	...

0000000000408194 <.idata$4>:
  408194:	98                   	cwtl   
  408195:	86 00                	xchg   %al,(%rax)
  408197:	00 00                	add    %al,(%rax)
  408199:	00 00                	add    %al,(%rax)
	...

000000000040819c <.idata$4>:
  40819c:	a2 86 00 00 00 00 00 	movabs %al,0xaa00000000000086
  4081a3:	00 aa 

00000000004081a4 <.idata$4>:
  4081a4:	aa                   	stos   %al,%es:(%rdi)
  4081a5:	86 00                	xchg   %al,(%rax)
  4081a7:	00 00                	add    %al,(%rax)
  4081a9:	00 00                	add    %al,(%rax)
	...

00000000004081ac <.idata$4>:
  4081ac:	b4 86                	mov    $0x86,%ah
  4081ae:	00 00                	add    %al,(%rax)
  4081b0:	00 00                	add    %al,(%rax)
	...

00000000004081b4 <.idata$4>:
  4081b4:	be 86 00 00 00       	mov    $0x86,%esi
  4081b9:	00 00                	add    %al,(%rax)
	...

00000000004081bc <.idata$4>:
  4081bc:	c8 86 00 00          	enterq $0x86,$0x0
  4081c0:	00 00                	add    %al,(%rax)
	...

00000000004081c4 <.idata$4>:
  4081c4:	d2 86 00 00 00 00    	rolb   %cl,0x0(%rsi)
	...

00000000004081cc <.idata$4>:
  4081cc:	da 86 00 00 00 00    	fiaddl 0x0(%rsi)
	...

00000000004081d4 <.idata$4>:
  4081d4:	e2 86                	loop   40815c <.idata$4>
  4081d6:	00 00                	add    %al,(%rax)
  4081d8:	00 00                	add    %al,(%rax)
	...

00000000004081dc <.idata$4>:
  4081dc:	ec                   	in     (%dx),%al
  4081dd:	86 00                	xchg   %al,(%rax)
  4081df:	00 00                	add    %al,(%rax)
  4081e1:	00 00                	add    %al,(%rax)
	...

00000000004081e4 <.idata$4>:
  4081e4:	f6 86 00 00 00 00 00 	testb  $0x0,0x0(%rsi)
	...

00000000004081ec <.idata$4>:
  4081ec:	00 87 00 00 00 00    	add    %al,0x0(%rdi)
	...

00000000004081f4 <.idata$4>:
	...

00000000004081fc <__IAT_start__>:
  4081fc:	bc 83 00 00 00       	mov    $0x83,%esp
  408201:	00 00                	add    %al,(%rax)
	...

0000000000408204 <__imp_EnterCriticalSection>:
  408204:	d4                   	(bad)  
  408205:	83 00 00             	addl   $0x0,(%rax)
  408208:	00 00                	add    %al,(%rax)
	...

000000000040820c <__imp_GetCurrentProcess>:
  40820c:	ec                   	in     (%dx),%al
  40820d:	83 00 00             	addl   $0x0,(%rax)
  408210:	00 00                	add    %al,(%rax)
	...

0000000000408214 <__imp_GetCurrentProcessId>:
  408214:	00 84 00 00 00 00 00 	add    %al,0x0(%rax,%rax,1)
	...

000000000040821c <__imp_GetCurrentThreadId>:
  40821c:	16                   	(bad)  
  40821d:	84 00                	test   %al,(%rax)
  40821f:	00 00                	add    %al,(%rax)
  408221:	00 00                	add    %al,(%rax)
	...

0000000000408224 <__imp_GetLastError>:
  408224:	2c 84                	sub    $0x84,%al
  408226:	00 00                	add    %al,(%rax)
  408228:	00 00                	add    %al,(%rax)
	...

000000000040822c <__imp_GetStartupInfoA>:
  40822c:	3c 84                	cmp    $0x84,%al
  40822e:	00 00                	add    %al,(%rax)
  408230:	00 00                	add    %al,(%rax)
	...

0000000000408234 <__imp_GetSystemTimeAsFileTime>:
  408234:	4e 84 00             	rex.WRX test %r8b,(%rax)
  408237:	00 00                	add    %al,(%rax)
  408239:	00 00                	add    %al,(%rax)
	...

000000000040823c <__imp_GetTickCount>:
  40823c:	68 84 00 00 00       	pushq  $0x84
  408241:	00 00                	add    %al,(%rax)
	...

0000000000408244 <__imp_InitializeCriticalSection>:
  408244:	78 84                	js     4081ca <.idata$4+0x6>
  408246:	00 00                	add    %al,(%rax)
  408248:	00 00                	add    %al,(%rax)
	...

000000000040824c <__imp_LeaveCriticalSection>:
  40824c:	94                   	xchg   %eax,%esp
  40824d:	84 00                	test   %al,(%rax)
  40824f:	00 00                	add    %al,(%rax)
  408251:	00 00                	add    %al,(%rax)
	...

0000000000408254 <__imp_QueryPerformanceCounter>:
  408254:	ac                   	lods   %ds:(%rsi),%al
  408255:	84 00                	test   %al,(%rax)
  408257:	00 00                	add    %al,(%rax)
  408259:	00 00                	add    %al,(%rax)
	...

000000000040825c <__imp_RtlAddFunctionTable>:
  40825c:	c6 84 00 00 00 00 00 	movb   $0x0,0x0(%rax,%rax,1)
  408263:	00 

0000000000408264 <__imp_RtlCaptureContext>:
  408264:	dc 84 00 00 00 00 00 	faddl  0x0(%rax,%rax,1)
	...

000000000040826c <__imp_RtlLookupFunctionEntry>:
  40826c:	f0 84 00             	lock test %al,(%rax)
  40826f:	00 00                	add    %al,(%rax)
  408271:	00 00                	add    %al,(%rax)
	...

0000000000408274 <__imp_RtlVirtualUnwind>:
  408274:	0a 85 00 00 00 00    	or     0x0(%rbp),%al
	...

000000000040827c <__imp_SetUnhandledExceptionFilter>:
  40827c:	1e                   	(bad)  
  40827d:	85 00                	test   %eax,(%rax)
  40827f:	00 00                	add    %al,(%rax)
  408281:	00 00                	add    %al,(%rax)
	...

0000000000408284 <__imp_Sleep>:
  408284:	3c 85                	cmp    $0x85,%al
  408286:	00 00                	add    %al,(%rax)
  408288:	00 00                	add    %al,(%rax)
	...

000000000040828c <__imp_TerminateProcess>:
  40828c:	44 85 00             	test   %r8d,(%rax)
  40828f:	00 00                	add    %al,(%rax)
  408291:	00 00                	add    %al,(%rax)
	...

0000000000408294 <__imp_TlsGetValue>:
  408294:	58                   	pop    %rax
  408295:	85 00                	test   %eax,(%rax)
  408297:	00 00                	add    %al,(%rax)
  408299:	00 00                	add    %al,(%rax)
	...

000000000040829c <__imp_UnhandledExceptionFilter>:
  40829c:	66 85 00             	test   %ax,(%rax)
  40829f:	00 00                	add    %al,(%rax)
  4082a1:	00 00                	add    %al,(%rax)
	...

00000000004082a4 <__imp_VirtualProtect>:
  4082a4:	82                   	(bad)  
  4082a5:	85 00                	test   %eax,(%rax)
  4082a7:	00 00                	add    %al,(%rax)
  4082a9:	00 00                	add    %al,(%rax)
	...

00000000004082ac <__imp_VirtualQuery>:
  4082ac:	94                   	xchg   %eax,%esp
  4082ad:	85 00                	test   %eax,(%rax)
  4082af:	00 00                	add    %al,(%rax)
  4082b1:	00 00                	add    %al,(%rax)
	...

00000000004082b4 <.idata$5>:
	...

00000000004082bc <__imp___C_specific_handler>:
  4082bc:	a4                   	movsb  %ds:(%rsi),%es:(%rdi)
  4082bd:	85 00                	test   %eax,(%rax)
  4082bf:	00 00                	add    %al,(%rax)
  4082c1:	00 00                	add    %al,(%rax)
	...

00000000004082c4 <__imp___dllonexit>:
  4082c4:	bc 85 00 00 00       	mov    $0x85,%esp
  4082c9:	00 00                	add    %al,(%rax)
	...

00000000004082cc <__imp___getmainargs>:
  4082cc:	ca 85 00             	lret   $0x85
  4082cf:	00 00                	add    %al,(%rax)
  4082d1:	00 00                	add    %al,(%rax)
	...

00000000004082d4 <__imp___initenv>:
  4082d4:	da 85 00 00 00 00    	fiaddl 0x0(%rbp)
	...

00000000004082dc <__imp___iob_func>:
  4082dc:	e6 85                	out    %al,$0x85
  4082de:	00 00                	add    %al,(%rax)
  4082e0:	00 00                	add    %al,(%rax)
	...

00000000004082e4 <__imp___lconv_init>:
  4082e4:	f4                   	hlt    
  4082e5:	85 00                	test   %eax,(%rax)
  4082e7:	00 00                	add    %al,(%rax)
  4082e9:	00 00                	add    %al,(%rax)
	...

00000000004082ec <__imp___set_app_type>:
  4082ec:	04 86                	add    $0x86,%al
  4082ee:	00 00                	add    %al,(%rax)
  4082f0:	00 00                	add    %al,(%rax)
	...

00000000004082f4 <__imp___setusermatherr>:
  4082f4:	16                   	(bad)  
  4082f5:	86 00                	xchg   %al,(%rax)
  4082f7:	00 00                	add    %al,(%rax)
  4082f9:	00 00                	add    %al,(%rax)
	...

00000000004082fc <__imp__acmdln>:
  4082fc:	2a 86 00 00 00 00    	sub    0x0(%rsi),%al
	...

0000000000408304 <__imp__amsg_exit>:
  408304:	34 86                	xor    $0x86,%al
  408306:	00 00                	add    %al,(%rax)
  408308:	00 00                	add    %al,(%rax)
	...

000000000040830c <__imp__cexit>:
  40830c:	42 86 00             	rex.X xchg %al,(%rax)
  40830f:	00 00                	add    %al,(%rax)
  408311:	00 00                	add    %al,(%rax)
	...

0000000000408314 <__imp__fmode>:
  408314:	4c 86 00             	rex.WR xchg %r8b,(%rax)
  408317:	00 00                	add    %al,(%rax)
  408319:	00 00                	add    %al,(%rax)
	...

000000000040831c <__imp__initterm>:
  40831c:	56                   	push   %rsi
  40831d:	86 00                	xchg   %al,(%rax)
  40831f:	00 00                	add    %al,(%rax)
  408321:	00 00                	add    %al,(%rax)
	...

0000000000408324 <__imp__lock>:
  408324:	62                   	(bad)  
  408325:	86 00                	xchg   %al,(%rax)
  408327:	00 00                	add    %al,(%rax)
  408329:	00 00                	add    %al,(%rax)
	...

000000000040832c <__imp__onexit>:
  40832c:	6a 86                	pushq  $0xffffffffffffff86
  40832e:	00 00                	add    %al,(%rax)
  408330:	00 00                	add    %al,(%rax)
	...

0000000000408334 <__imp__unlock>:
  408334:	74 86                	je     4082bc <__imp___C_specific_handler>
  408336:	00 00                	add    %al,(%rax)
  408338:	00 00                	add    %al,(%rax)
	...

000000000040833c <__imp_abort>:
  40833c:	7e 86                	jle    4082c4 <__imp___dllonexit>
  40833e:	00 00                	add    %al,(%rax)
  408340:	00 00                	add    %al,(%rax)
	...

0000000000408344 <__imp_calloc>:
  408344:	86 86 00 00 00 00    	xchg   %al,0x0(%rsi)
	...

000000000040834c <__imp_exit>:
  40834c:	90                   	nop
  40834d:	86 00                	xchg   %al,(%rax)
  40834f:	00 00                	add    %al,(%rax)
  408351:	00 00                	add    %al,(%rax)
	...

0000000000408354 <__imp_fprintf>:
  408354:	98                   	cwtl   
  408355:	86 00                	xchg   %al,(%rax)
  408357:	00 00                	add    %al,(%rax)
  408359:	00 00                	add    %al,(%rax)
	...

000000000040835c <__imp_free>:
  40835c:	a2 86 00 00 00 00 00 	movabs %al,0xaa00000000000086
  408363:	00 aa 

0000000000408364 <__imp_fwrite>:
  408364:	aa                   	stos   %al,%es:(%rdi)
  408365:	86 00                	xchg   %al,(%rax)
  408367:	00 00                	add    %al,(%rax)
  408369:	00 00                	add    %al,(%rax)
	...

000000000040836c <__imp_malloc>:
  40836c:	b4 86                	mov    $0x86,%ah
  40836e:	00 00                	add    %al,(%rax)
  408370:	00 00                	add    %al,(%rax)
	...

0000000000408374 <__imp_memcpy>:
  408374:	be 86 00 00 00       	mov    $0x86,%esi
  408379:	00 00                	add    %al,(%rax)
	...

000000000040837c <__imp_printf>:
  40837c:	c8 86 00 00          	enterq $0x86,$0x0
  408380:	00 00                	add    %al,(%rax)
	...

0000000000408384 <__imp_puts>:
  408384:	d2 86 00 00 00 00    	rolb   %cl,0x0(%rsi)
	...

000000000040838c <__imp_scanf>:
  40838c:	da 86 00 00 00 00    	fiaddl 0x0(%rsi)
	...

0000000000408394 <__imp_signal>:
  408394:	e2 86                	loop   40831c <__imp__initterm>
  408396:	00 00                	add    %al,(%rax)
  408398:	00 00                	add    %al,(%rax)
	...

000000000040839c <__imp_strlen>:
  40839c:	ec                   	in     (%dx),%al
  40839d:	86 00                	xchg   %al,(%rax)
  40839f:	00 00                	add    %al,(%rax)
  4083a1:	00 00                	add    %al,(%rax)
	...

00000000004083a4 <__imp_strncmp>:
  4083a4:	f6 86 00 00 00 00 00 	testb  $0x0,0x0(%rsi)
	...

00000000004083ac <__imp_vfprintf>:
  4083ac:	00 87 00 00 00 00    	add    %al,0x0(%rdi)
	...

00000000004083b4 <.idata$5>:
	...

00000000004083bc <__IAT_end__>:
  4083bc:	d8 00                	fadds  (%rax)
  4083be:	44                   	rex.R
  4083bf:	65 6c                	gs insb (%dx),%es:(%rdi)
  4083c1:	65 74 65             	gs je  408429 <.idata$6+0x13>
  4083c4:	43 72 69             	rex.XB jb 408430 <.idata$6+0x4>
  4083c7:	74 69                	je     408432 <.idata$6+0x6>
  4083c9:	63 61 6c             	movslq 0x6c(%rcx),%esp
  4083cc:	53                   	push   %rbx
  4083cd:	65 63 74 69 6f       	movslq %gs:0x6f(%rcx,%rbp,2),%esi
  4083d2:	6e                   	outsb  %ds:(%rsi),(%dx)
	...

00000000004083d4 <.idata$6>:
  4083d4:	f8                   	clc    
  4083d5:	00 45 6e             	add    %al,0x6e(%rbp)
  4083d8:	74 65                	je     40843f <.idata$6+0x3>
  4083da:	72 43                	jb     40841f <.idata$6+0x9>
  4083dc:	72 69                	jb     408447 <.idata$6+0xb>
  4083de:	74 69                	je     408449 <.idata$6+0xd>
  4083e0:	63 61 6c             	movslq 0x6c(%rcx),%esp
  4083e3:	53                   	push   %rbx
  4083e4:	65 63 74 69 6f       	movslq %gs:0x6f(%rcx,%rbp,2),%esi
  4083e9:	6e                   	outsb  %ds:(%rsi),(%dx)
	...

00000000004083ec <.idata$6>:
  4083ec:	cd 01                	int    $0x1
  4083ee:	47                   	rex.RXB
  4083ef:	65 74 43             	gs je  408435 <.idata$6+0x9>
  4083f2:	75 72                	jne    408466 <.idata$6+0x18>
  4083f4:	72 65                	jb     40845b <.idata$6+0xd>
  4083f6:	6e                   	outsb  %ds:(%rsi),(%dx)
  4083f7:	74 50                	je     408449 <.idata$6+0xd>
  4083f9:	72 6f                	jb     40846a <.idata$6+0x2>
  4083fb:	63 65 73             	movslq 0x73(%rbp),%esp
  4083fe:	73 00                	jae    408400 <.idata$6>

0000000000408400 <.idata$6>:
  408400:	ce                   	(bad)  
  408401:	01 47 65             	add    %eax,0x65(%rdi)
  408404:	74 43                	je     408449 <.idata$6+0xd>
  408406:	75 72                	jne    40847a <.idata$6+0x2>
  408408:	72 65                	jb     40846f <.idata$6+0x7>
  40840a:	6e                   	outsb  %ds:(%rsi),(%dx)
  40840b:	74 50                	je     40845d <.idata$6+0xf>
  40840d:	72 6f                	jb     40847e <.idata$6+0x6>
  40840f:	63 65 73             	movslq 0x73(%rbp),%esp
  408412:	73 49                	jae    40845d <.idata$6+0xf>
  408414:	64 00 d2             	fs add %dl,%dl

0000000000408416 <.idata$6>:
  408416:	d2 01                	rolb   %cl,(%rcx)
  408418:	47                   	rex.RXB
  408419:	65 74 43             	gs je  40845f <.idata$6+0x11>
  40841c:	75 72                	jne    408490 <.idata$6+0x18>
  40841e:	72 65                	jb     408485 <.idata$6+0xd>
  408420:	6e                   	outsb  %ds:(%rsi),(%dx)
  408421:	74 54                	je     408477 <.idata$6+0xf>
  408423:	68 72 65 61 64       	pushq  $0x64616572
  408428:	49                   	rex.WB
  408429:	64 00 00             	add    %al,%fs:(%rax)

000000000040842c <.idata$6>:
  40842c:	10 02                	adc    %al,(%rdx)
  40842e:	47                   	rex.RXB
  40842f:	65 74 4c             	gs je  40847e <.idata$6+0x6>
  408432:	61                   	(bad)  
  408433:	73 74                	jae    4084a9 <.idata$6+0x15>
  408435:	45 72 72             	rex.RB jb 4084aa <.idata$6+0x16>
  408438:	6f                   	outsl  %ds:(%rsi),(%dx)
  408439:	72 00                	jb     40843b <.idata$6+0xf>
	...

000000000040843c <.idata$6>:
  40843c:	73 02                	jae    408440 <.idata$6+0x4>
  40843e:	47                   	rex.RXB
  40843f:	65 74 53             	gs je  408495 <.idata$6+0x1>
  408442:	74 61                	je     4084a5 <.idata$6+0x11>
  408444:	72 74                	jb     4084ba <.idata$6+0xe>
  408446:	75 70                	jne    4084b8 <.idata$6+0xc>
  408448:	49 6e                	rex.WB outsb %ds:(%rsi),(%dx)
  40844a:	66 6f                	outsw  %ds:(%rsi),(%dx)
  40844c:	41 00 8a 02 47 65 74 	add    %cl,0x74654702(%r10)

000000000040844e <.idata$6>:
  40844e:	8a 02                	mov    (%rdx),%al
  408450:	47                   	rex.RXB
  408451:	65 74 53             	gs je  4084a7 <.idata$6+0x13>
  408454:	79 73                	jns    4084c9 <.idata$6+0x3>
  408456:	74 65                	je     4084bd <.idata$6+0x11>
  408458:	6d                   	insl   (%dx),%es:(%rdi)
  408459:	54                   	push   %rsp
  40845a:	69 6d 65 41 73 46 69 	imul   $0x69467341,0x65(%rbp),%ebp
  408461:	6c                   	insb   (%dx),%es:(%rdi)
  408462:	65 54                	gs push %rsp
  408464:	69 6d 65 00 a5 02 47 	imul   $0x4702a500,0x65(%rbp),%ebp

0000000000408468 <.idata$6>:
  408468:	a5                   	movsl  %ds:(%rsi),%es:(%rdi)
  408469:	02 47 65             	add    0x65(%rdi),%al
  40846c:	74 54                	je     4084c2 <.idata$6+0x16>
  40846e:	69 63 6b 43 6f 75 6e 	imul   $0x6e756f43,0x6b(%rbx),%esp
  408475:	74 00                	je     408477 <.idata$6+0xf>
	...

0000000000408478 <.idata$6>:
  408478:	f9                   	stc    
  408479:	02 49 6e             	add    0x6e(%rcx),%cl
  40847c:	69 74 69 61 6c 69 7a 	imul   $0x657a696c,0x61(%rcx,%rbp,2),%esi
  408483:	65 
  408484:	43 72 69             	rex.XB jb 4084f0 <.idata$6>
  408487:	74 69                	je     4084f2 <.idata$6+0x2>
  408489:	63 61 6c             	movslq 0x6c(%rcx),%esp
  40848c:	53                   	push   %rbx
  40848d:	65 63 74 69 6f       	movslq %gs:0x6f(%rcx,%rbp,2),%esi
  408492:	6e                   	outsb  %ds:(%rsi),(%dx)
	...

0000000000408494 <.idata$6>:
  408494:	4b 03 4c 65 61       	add    0x61(%r13,%r12,2),%rcx
  408499:	76 65                	jbe    408500 <.idata$6+0x10>
  40849b:	43 72 69             	rex.XB jb 408507 <.idata$6+0x17>
  40849e:	74 69                	je     408509 <.idata$6+0x19>
  4084a0:	63 61 6c             	movslq 0x6c(%rcx),%esp
  4084a3:	53                   	push   %rbx
  4084a4:	65 63 74 69 6f       	movslq %gs:0x6f(%rcx,%rbp,2),%esi
  4084a9:	6e                   	outsb  %ds:(%rsi),(%dx)
	...

00000000004084ac <.idata$6>:
  4084ac:	bb 03 51 75 65       	mov    $0x65755103,%ebx
  4084b1:	72 79                	jb     40852c <.idata$6+0xe>
  4084b3:	50                   	push   %rax
  4084b4:	65 72 66             	gs jb  40851d <.idata$6+0x13>
  4084b7:	6f                   	outsl  %ds:(%rsi),(%dx)
  4084b8:	72 6d                	jb     408527 <.idata$6+0x9>
  4084ba:	61                   	(bad)  
  4084bb:	6e                   	outsb  %ds:(%rsi),(%dx)
  4084bc:	63 65 43             	movslq 0x43(%rbp),%esp
  4084bf:	6f                   	outsl  %ds:(%rsi),(%dx)
  4084c0:	75 6e                	jne    408530 <.idata$6+0x12>
  4084c2:	74 65                	je     408529 <.idata$6+0xb>
  4084c4:	72 00                	jb     4084c6 <.idata$6>

00000000004084c6 <.idata$6>:
  4084c6:	01 04 52             	add    %eax,(%rdx,%rdx,2)
  4084c9:	74 6c                	je     408537 <.idata$6+0x19>
  4084cb:	41                   	rex.B
  4084cc:	64 64 46 75 6e       	fs fs rex.RX jne 40853f <.idata$6+0x3>
  4084d1:	63 74 69 6f          	movslq 0x6f(%rcx,%rbp,2),%esi
  4084d5:	6e                   	outsb  %ds:(%rsi),(%dx)
  4084d6:	54                   	push   %rsp
  4084d7:	61                   	(bad)  
  4084d8:	62                   	(bad)  
  4084d9:	6c                   	insb   (%dx),%es:(%rdi)
  4084da:	65 00 02             	add    %al,%gs:(%rdx)

00000000004084dc <.idata$6>:
  4084dc:	02 04 52             	add    (%rdx,%rdx,2),%al
  4084df:	74 6c                	je     40854d <.idata$6+0x9>
  4084e1:	43 61                	rex.XB (bad) 
  4084e3:	70 74                	jo     408559 <.idata$6+0x1>
  4084e5:	75 72                	jne    408559 <.idata$6+0x1>
  4084e7:	65 43 6f             	rex.XB outsl %gs:(%rsi),(%dx)
  4084ea:	6e                   	outsb  %ds:(%rsi),(%dx)
  4084eb:	74 65                	je     408552 <.idata$6+0xe>
  4084ed:	78 74                	js     408563 <.idata$6+0xb>
	...

00000000004084f0 <.idata$6>:
  4084f0:	09 04 52             	or     %eax,(%rdx,%rdx,2)
  4084f3:	74 6c                	je     408561 <.idata$6+0x9>
  4084f5:	4c 6f                	rex.WR outsl %ds:(%rsi),(%dx)
  4084f7:	6f                   	outsl  %ds:(%rsi),(%dx)
  4084f8:	6b 75 70 46          	imul   $0x46,0x70(%rbp),%esi
  4084fc:	75 6e                	jne    40856c <.idata$6+0x6>
  4084fe:	63 74 69 6f          	movslq 0x6f(%rcx,%rbp,2),%esi
  408502:	6e                   	outsb  %ds:(%rsi),(%dx)
  408503:	45 6e                	rex.RB outsb %ds:(%rsi),(%dx)
  408505:	74 72                	je     408579 <.idata$6+0x13>
  408507:	79 00                	jns    408509 <.idata$6+0x19>
	...

000000000040850a <.idata$6>:
  40850a:	10 04 52             	adc    %al,(%rdx,%rdx,2)
  40850d:	74 6c                	je     40857b <.idata$6+0x15>
  40850f:	56                   	push   %rsi
  408510:	69 72 74 75 61 6c 55 	imul   $0x556c6175,0x74(%rdx),%esi
  408517:	6e                   	outsb  %ds:(%rsi),(%dx)
  408518:	77 69                	ja     408583 <.idata$6+0x1>
  40851a:	6e                   	outsb  %ds:(%rsi),(%dx)
  40851b:	64 00 00             	add    %al,%fs:(%rax)

000000000040851e <.idata$6>:
  40851e:	9f                   	lahf   
  40851f:	04 53                	add    $0x53,%al
  408521:	65 74 55             	gs je  408579 <.idata$6+0x13>
  408524:	6e                   	outsb  %ds:(%rsi),(%dx)
  408525:	68 61 6e 64 6c       	pushq  $0x6c646e61
  40852a:	65 64 45 78 63       	gs fs rex.RB js 408592 <.idata$6+0x10>
  40852f:	65 70 74             	gs jo  4085a6 <.idata$6+0x2>
  408532:	69 6f 6e 46 69 6c 74 	imul   $0x746c6946,0x6e(%rdi),%ebp
  408539:	65 72 00             	gs jb  40853c <.idata$6>

000000000040853c <.idata$6>:
  40853c:	ac                   	lods   %ds:(%rsi),%al
  40853d:	04 53                	add    $0x53,%al
  40853f:	6c                   	insb   (%dx),%es:(%rdi)
  408540:	65 65 70 00          	gs gs jo 408544 <.idata$6>

0000000000408544 <.idata$6>:
  408544:	ba 04 54 65 72       	mov    $0x72655404,%edx
  408549:	6d                   	insl   (%dx),%es:(%rdi)
  40854a:	69 6e 61 74 65 50 72 	imul   $0x72506574,0x61(%rsi),%ebp
  408551:	6f                   	outsl  %ds:(%rsi),(%dx)
  408552:	63 65 73             	movslq 0x73(%rbp),%esp
  408555:	73 00                	jae    408557 <.idata$6+0x13>
	...

0000000000408558 <.idata$6>:
  408558:	c1 04 54 6c          	roll   $0x6c,(%rsp,%rdx,2)
  40855c:	73 47                	jae    4085a5 <.idata$6+0x1>
  40855e:	65 74 56             	gs je  4085b7 <.idata$6+0x13>
  408561:	61                   	(bad)  
  408562:	6c                   	insb   (%dx),%es:(%rdi)
  408563:	75 65                	jne    4085ca <.idata$6>
	...

0000000000408566 <.idata$6>:
  408566:	ce                   	(bad)  
  408567:	04 55                	add    $0x55,%al
  408569:	6e                   	outsb  %ds:(%rsi),(%dx)
  40856a:	68 61 6e 64 6c       	pushq  $0x6c646e61
  40856f:	65 64 45 78 63       	gs fs rex.RB js 4085d7 <.idata$6+0xd>
  408574:	65 70 74             	gs jo  4085eb <.idata$6+0x5>
  408577:	69 6f 6e 46 69 6c 74 	imul   $0x746c6946,0x6e(%rdi),%ebp
  40857e:	65 72 00             	gs jb  408581 <.idata$6+0x1b>
	...

0000000000408582 <.idata$6>:
  408582:	ec                   	in     (%dx),%al
  408583:	04 56                	add    $0x56,%al
  408585:	69 72 74 75 61 6c 50 	imul   $0x506c6175,0x74(%rdx),%esi
  40858c:	72 6f                	jb     4085fd <.idata$6+0x9>
  40858e:	74 65                	je     4085f5 <.idata$6+0x1>
  408590:	63 74 00 00          	movslq 0x0(%rax,%rax,1),%esi

0000000000408594 <.idata$6>:
  408594:	ee                   	out    %al,(%dx)
  408595:	04 56                	add    $0x56,%al
  408597:	69 72 74 75 61 6c 51 	imul   $0x516c6175,0x74(%rdx),%esi
  40859e:	75 65                	jne    408605 <.idata$6+0x1>
  4085a0:	72 79                	jb     40861b <.idata$6+0x5>
	...

00000000004085a4 <.idata$6>:
  4085a4:	37                   	(bad)  
  4085a5:	00 5f 5f             	add    %bl,0x5f(%rdi)
  4085a8:	43 5f                	rex.XB pop %r15
  4085aa:	73 70                	jae    40861c <.idata$6+0x6>
  4085ac:	65 63 69 66          	movslq %gs:0x66(%rcx),%ebp
  4085b0:	69 63 5f 68 61 6e 64 	imul   $0x646e6168,0x5f(%rbx),%esp
  4085b7:	6c                   	insb   (%dx),%es:(%rdi)
  4085b8:	65 72 00             	gs jb  4085bb <.idata$6+0x17>
	...

00000000004085bc <.idata$6>:
  4085bc:	4e 00 5f 5f          	rex.WRX add %r11b,0x5f(%rdi)
  4085c0:	64 6c                	fs insb (%dx),%es:(%rdi)
  4085c2:	6c                   	insb   (%dx),%es:(%rdi)
  4085c3:	6f                   	outsl  %ds:(%rsi),(%dx)
  4085c4:	6e                   	outsb  %ds:(%rsi),(%dx)
  4085c5:	65 78 69             	gs js  408631 <.idata$6+0x7>
  4085c8:	74 00                	je     4085ca <.idata$6>

00000000004085ca <.idata$6>:
  4085ca:	51                   	push   %rcx
  4085cb:	00 5f 5f             	add    %bl,0x5f(%rdi)
  4085ce:	67 65 74 6d          	addr32 gs je 40863f <.idata$6+0xb>
  4085d2:	61                   	(bad)  
  4085d3:	69 6e 61 72 67 73 00 	imul   $0x736772,0x61(%rsi),%ebp

00000000004085da <.idata$6>:
  4085da:	52                   	push   %rdx
  4085db:	00 5f 5f             	add    %bl,0x5f(%rdi)
  4085de:	69 6e 69 74 65 6e 76 	imul   $0x766e6574,0x69(%rsi),%ebp
	...

00000000004085e6 <.idata$6>:
  4085e6:	53                   	push   %rbx
  4085e7:	00 5f 5f             	add    %bl,0x5f(%rdi)
  4085ea:	69 6f 62 5f 66 75 6e 	imul   $0x6e75665f,0x62(%rdi),%ebp
  4085f1:	63 00                	movslq (%rax),%eax
	...

00000000004085f4 <.idata$6>:
  4085f4:	5a                   	pop    %rdx
  4085f5:	00 5f 5f             	add    %bl,0x5f(%rdi)
  4085f8:	6c                   	insb   (%dx),%es:(%rdi)
  4085f9:	63 6f 6e             	movslq 0x6e(%rdi),%ebp
  4085fc:	76 5f                	jbe    40865d <.idata$6+0x7>
  4085fe:	69 6e 69 74 00 00 60 	imul   $0x60000074,0x69(%rsi),%ebp

0000000000408604 <.idata$6>:
  408604:	60                   	(bad)  
  408605:	00 5f 5f             	add    %bl,0x5f(%rdi)
  408608:	73 65                	jae    40866f <.idata$6+0x5>
  40860a:	74 5f                	je     40866b <.idata$6+0x1>
  40860c:	61                   	(bad)  
  40860d:	70 70                	jo     40867f <.idata$6+0x1>
  40860f:	5f                   	pop    %rdi
  408610:	74 79                	je     40868b <.idata$6+0x5>
  408612:	70 65                	jo     408679 <.idata$6+0x5>
	...

0000000000408616 <.idata$6>:
  408616:	62                   	(bad)  
  408617:	00 5f 5f             	add    %bl,0x5f(%rdi)
  40861a:	73 65                	jae    408681 <.idata$6+0x3>
  40861c:	74 75                	je     408693 <.idata$6+0x3>
  40861e:	73 65                	jae    408685 <.idata$6+0x7>
  408620:	72 6d                	jb     40868f <.idata$6+0x9>
  408622:	61                   	(bad)  
  408623:	74 68                	je     40868d <.idata$6+0x7>
  408625:	65 72 72             	gs jb  40869a <.idata$6+0x2>
	...

000000000040862a <.idata$6>:
  40862a:	74 00                	je     40862c <.idata$6+0x2>
  40862c:	5f                   	pop    %rdi
  40862d:	61                   	(bad)  
  40862e:	63 6d 64             	movslq 0x64(%rbp),%ebp
  408631:	6c                   	insb   (%dx),%es:(%rdi)
  408632:	6e                   	outsb  %ds:(%rsi),(%dx)
	...

0000000000408634 <.idata$6>:
  408634:	7b 00                	jnp    408636 <.idata$6+0x2>
  408636:	5f                   	pop    %rdi
  408637:	61                   	(bad)  
  408638:	6d                   	insl   (%dx),%es:(%rdi)
  408639:	73 67                	jae    4086a2 <.idata$6>
  40863b:	5f                   	pop    %rdi
  40863c:	65 78 69             	gs js  4086a8 <.idata$6+0x6>
  40863f:	74 00                	je     408641 <.idata$6+0xd>
	...

0000000000408642 <.idata$6>:
  408642:	8d 00                	lea    (%rax),%eax
  408644:	5f                   	pop    %rdi
  408645:	63 65 78             	movslq 0x78(%rbp),%esp
  408648:	69 74 00 00 fd 00 5f 	imul   $0x665f00fd,0x0(%rax,%rax,1),%esi
  40864f:	66 

000000000040864c <.idata$6>:
  40864c:	fd                   	std    
  40864d:	00 5f 66             	add    %bl,0x66(%rdi)
  408650:	6d                   	insl   (%dx),%es:(%rdi)
  408651:	6f                   	outsl  %ds:(%rsi),(%dx)
  408652:	64 65 00 00          	fs add %al,%gs:(%rax)

0000000000408656 <.idata$6>:
  408656:	49 01 5f 69          	add    %rbx,0x69(%r15)
  40865a:	6e                   	outsb  %ds:(%rsi),(%dx)
  40865b:	69 74 74 65 72 6d 00 	imul   $0xb9006d72,0x65(%rsp,%rsi,2),%esi
  408662:	b9 

0000000000408662 <.idata$6>:
  408662:	b9 01 5f 6c 6f       	mov    $0x6f6c5f01,%ecx
  408667:	63 6b 00             	movslq 0x0(%rbx),%ebp

000000000040866a <.idata$6>:
  40866a:	62 02 5f 6f 6e       	(bad)  {%k7}
  40866f:	65 78 69             	gs js  4086db <.idata$6+0x1>
  408672:	74 00                	je     408674 <.idata$6>

0000000000408674 <.idata$6>:
  408674:	32 03                	xor    (%rbx),%al
  408676:	5f                   	pop    %rdi
  408677:	75 6e                	jne    4086e7 <.idata$6+0x5>
  408679:	6c                   	insb   (%dx),%es:(%rdi)
  40867a:	6f                   	outsl  %ds:(%rsi),(%dx)
  40867b:	63 6b 00             	movslq 0x0(%rbx),%ebp

000000000040867e <.idata$6>:
  40867e:	06                   	(bad)  
  40867f:	04 61                	add    $0x61,%al
  408681:	62                   	(bad)  {%k7}
  408682:	6f                   	outsl  %ds:(%rsi),(%dx)
  408683:	72 74                	jb     4086f9 <.idata$6+0x3>
	...

0000000000408686 <.idata$6>:
  408686:	14 04                	adc    $0x4,%al
  408688:	63 61 6c             	movslq 0x6c(%rcx),%esp
  40868b:	6c                   	insb   (%dx),%es:(%rdi)
  40868c:	6f                   	outsl  %ds:(%rsi),(%dx)
  40868d:	63 00                	movslq (%rax),%eax
	...

0000000000408690 <.idata$6>:
  408690:	1f                   	(bad)  
  408691:	04 65                	add    $0x65,%al
  408693:	78 69                	js     4086fe <.idata$6+0x8>
  408695:	74 00                	je     408697 <.idata$6+0x7>
	...

0000000000408698 <.idata$6>:
  408698:	30 04 66             	xor    %al,(%rsi,%riz,2)
  40869b:	70 72                	jo     40870f <.idata$7+0x3>
  40869d:	69 6e 74 66 00 37 04 	imul   $0x4370066,0x74(%rsi),%ebp

00000000004086a2 <.idata$6>:
  4086a2:	37                   	(bad)  
  4086a3:	04 66                	add    $0x66,%al
  4086a5:	72 65                	jb     40870c <.idata$7>
  4086a7:	65 00 00             	add    %al,%gs:(%rax)

00000000004086aa <.idata$6>:
  4086aa:	42 04 66             	rex.X add $0x66,%al
  4086ad:	77 72                	ja     408721 <.idata$7+0x1>
  4086af:	69 74 65 00 00 71 04 	imul   $0x6d047100,0x0(%rbp,%riz,2),%esi
  4086b6:	6d 

00000000004086b4 <.idata$6>:
  4086b4:	71 04                	jno    4086ba <.idata$6+0x6>
  4086b6:	6d                   	insl   (%dx),%es:(%rdi)
  4086b7:	61                   	(bad)  
  4086b8:	6c                   	insb   (%dx),%es:(%rdi)
  4086b9:	6c                   	insb   (%dx),%es:(%rdi)
  4086ba:	6f                   	outsl  %ds:(%rsi),(%dx)
  4086bb:	63 00                	movslq (%rax),%eax
	...

00000000004086be <.idata$6>:
  4086be:	79 04                	jns    4086c4 <.idata$6+0x6>
  4086c0:	6d                   	insl   (%dx),%es:(%rdi)
  4086c1:	65 6d                	gs insl (%dx),%es:(%rdi)
  4086c3:	63 70 79             	movslq 0x79(%rax),%esi
	...

00000000004086c8 <.idata$6>:
  4086c8:	80 04 70 72          	addb   $0x72,(%rax,%rsi,2)
  4086cc:	69 6e 74 66 00 00 84 	imul   $0x84000066,0x74(%rsi),%ebp

00000000004086d2 <.idata$6>:
  4086d2:	84 04 70             	test   %al,(%rax,%rsi,2)
  4086d5:	75 74                	jne    40874b <.idata$7+0x3>
  4086d7:	73 00                	jae    4086d9 <.idata$6+0x7>
	...

00000000004086da <.idata$6>:
  4086da:	90                   	nop
  4086db:	04 73                	add    $0x73,%al
  4086dd:	63 61 6e             	movslq 0x6e(%rcx),%esp
  4086e0:	66 00 96 04 73 69 67 	data16 add %dl,0x67697304(%rsi)

00000000004086e2 <.idata$6>:
  4086e2:	96                   	xchg   %eax,%esi
  4086e3:	04 73                	add    $0x73,%al
  4086e5:	69 67 6e 61 6c 00 00 	imul   $0x6c61,0x6e(%rdi),%esp

00000000004086ec <.idata$6>:
  4086ec:	a9 04 73 74 72       	test   $0x72747304,%eax
  4086f1:	6c                   	insb   (%dx),%es:(%rdi)
  4086f2:	65 6e                	outsb  %gs:(%rsi),(%dx)
	...

00000000004086f6 <.idata$6>:
  4086f6:	ac                   	lods   %ds:(%rsi),%al
  4086f7:	04 73                	add    $0x73,%al
  4086f9:	74 72                	je     40876d <__lib64_libkernel32_a_iname+0x5>
  4086fb:	6e                   	outsb  %ds:(%rsi),(%dx)
  4086fc:	63 6d 70             	movslq 0x70(%rbp),%ebp
	...

0000000000408700 <.idata$6>:
  408700:	cb                   	lret   
  408701:	04 76                	add    $0x76,%al
  408703:	66 70 72             	data16 jo 408778 <.idata$7>
  408706:	69 6e 74 66 00 00 00 	imul   $0x66,0x74(%rsi),%ebp

000000000040870c <.idata$7>:
  40870c:	00 80 00 00 00 80    	add    %al,-0x80000000(%rax)

0000000000408710 <.idata$7>:
  408710:	00 80 00 00 00 80    	add    %al,-0x80000000(%rax)

0000000000408714 <.idata$7>:
  408714:	00 80 00 00 00 80    	add    %al,-0x80000000(%rax)

0000000000408718 <.idata$7>:
  408718:	00 80 00 00 00 80    	add    %al,-0x80000000(%rax)

000000000040871c <.idata$7>:
  40871c:	00 80 00 00 00 80    	add    %al,-0x80000000(%rax)

0000000000408720 <.idata$7>:
  408720:	00 80 00 00 00 80    	add    %al,-0x80000000(%rax)

0000000000408724 <.idata$7>:
  408724:	00 80 00 00 00 80    	add    %al,-0x80000000(%rax)

0000000000408728 <.idata$7>:
  408728:	00 80 00 00 00 80    	add    %al,-0x80000000(%rax)

000000000040872c <.idata$7>:
  40872c:	00 80 00 00 00 80    	add    %al,-0x80000000(%rax)

0000000000408730 <.idata$7>:
  408730:	00 80 00 00 00 80    	add    %al,-0x80000000(%rax)

0000000000408734 <.idata$7>:
  408734:	00 80 00 00 00 80    	add    %al,-0x80000000(%rax)

0000000000408738 <.idata$7>:
  408738:	00 80 00 00 00 80    	add    %al,-0x80000000(%rax)

000000000040873c <.idata$7>:
  40873c:	00 80 00 00 00 80    	add    %al,-0x80000000(%rax)

0000000000408740 <.idata$7>:
  408740:	00 80 00 00 00 80    	add    %al,-0x80000000(%rax)

0000000000408744 <.idata$7>:
  408744:	00 80 00 00 00 80    	add    %al,-0x80000000(%rax)

0000000000408748 <.idata$7>:
  408748:	00 80 00 00 00 80    	add    %al,-0x80000000(%rax)

000000000040874c <.idata$7>:
  40874c:	00 80 00 00 00 80    	add    %al,-0x80000000(%rax)

0000000000408750 <.idata$7>:
  408750:	00 80 00 00 00 80    	add    %al,-0x80000000(%rax)

0000000000408754 <.idata$7>:
  408754:	00 80 00 00 00 80    	add    %al,-0x80000000(%rax)

0000000000408758 <.idata$7>:
  408758:	00 80 00 00 00 80    	add    %al,-0x80000000(%rax)

000000000040875c <.idata$7>:
  40875c:	00 80 00 00 00 80    	add    %al,-0x80000000(%rax)

0000000000408760 <.idata$7>:
  408760:	00 80 00 00 00 80    	add    %al,-0x80000000(%rax)

0000000000408764 <.idata$7>:
  408764:	00 80 00 00 4b 45    	add    %al,0x454b0000(%rax)

0000000000408768 <__lib64_libkernel32_a_iname>:
  408768:	4b                   	rex.WXB
  408769:	45 52                	rex.RB push %r10
  40876b:	4e                   	rex.WRX
  40876c:	45                   	rex.RB
  40876d:	4c 33 32             	xor    (%rdx),%r14
  408770:	2e 64 6c             	cs fs insb (%dx),%es:(%rdi)
  408773:	6c                   	insb   (%dx),%es:(%rdi)
  408774:	00 00                	add    %al,(%rax)
	...

0000000000408778 <.idata$7>:
  408778:	14 80                	adc    $0x80,%al
	...

000000000040877c <.idata$7>:
  40877c:	14 80                	adc    $0x80,%al
	...

0000000000408780 <.idata$7>:
  408780:	14 80                	adc    $0x80,%al
	...

0000000000408784 <.idata$7>:
  408784:	14 80                	adc    $0x80,%al
	...

0000000000408788 <.idata$7>:
  408788:	14 80                	adc    $0x80,%al
	...

000000000040878c <.idata$7>:
  40878c:	14 80                	adc    $0x80,%al
	...

0000000000408790 <.idata$7>:
  408790:	14 80                	adc    $0x80,%al
	...

0000000000408794 <.idata$7>:
  408794:	14 80                	adc    $0x80,%al
	...

0000000000408798 <.idata$7>:
  408798:	14 80                	adc    $0x80,%al
	...

000000000040879c <.idata$7>:
  40879c:	14 80                	adc    $0x80,%al
	...

00000000004087a0 <.idata$7>:
  4087a0:	14 80                	adc    $0x80,%al
	...

00000000004087a4 <.idata$7>:
  4087a4:	14 80                	adc    $0x80,%al
	...

00000000004087a8 <.idata$7>:
  4087a8:	14 80                	adc    $0x80,%al
	...

00000000004087ac <.idata$7>:
  4087ac:	14 80                	adc    $0x80,%al
	...

00000000004087b0 <.idata$7>:
  4087b0:	14 80                	adc    $0x80,%al
	...

00000000004087b4 <.idata$7>:
  4087b4:	14 80                	adc    $0x80,%al
	...

00000000004087b8 <.idata$7>:
  4087b8:	14 80                	adc    $0x80,%al
	...

00000000004087bc <.idata$7>:
  4087bc:	14 80                	adc    $0x80,%al
	...

00000000004087c0 <.idata$7>:
  4087c0:	14 80                	adc    $0x80,%al
	...

00000000004087c4 <.idata$7>:
  4087c4:	14 80                	adc    $0x80,%al
	...

00000000004087c8 <.idata$7>:
  4087c8:	14 80                	adc    $0x80,%al
	...

00000000004087cc <.idata$7>:
  4087cc:	14 80                	adc    $0x80,%al
	...

00000000004087d0 <.idata$7>:
  4087d0:	14 80                	adc    $0x80,%al
	...

00000000004087d4 <.idata$7>:
  4087d4:	14 80                	adc    $0x80,%al
	...

00000000004087d8 <.idata$7>:
  4087d8:	14 80                	adc    $0x80,%al
	...

00000000004087dc <.idata$7>:
  4087dc:	14 80                	adc    $0x80,%al
	...

00000000004087e0 <.idata$7>:
  4087e0:	14 80                	adc    $0x80,%al
	...

00000000004087e4 <.idata$7>:
  4087e4:	14 80                	adc    $0x80,%al
	...

00000000004087e8 <.idata$7>:
  4087e8:	14 80                	adc    $0x80,%al
	...

00000000004087ec <.idata$7>:
  4087ec:	14 80                	adc    $0x80,%al
	...

00000000004087f0 <.idata$7>:
  4087f0:	14 80                	adc    $0x80,%al
	...

00000000004087f4 <__lib64_libmsvcrt_a_iname>:
  4087f4:	6d                   	insl   (%dx),%es:(%rdi)
  4087f5:	73 76                	jae    40886d <__lib64_libmsvcrt_a_iname+0x79>
  4087f7:	63 72 74             	movslq 0x74(%rdx),%esi
  4087fa:	2e 64 6c             	cs fs insb (%dx),%es:(%rdi)
  4087fd:	6c                   	insb   (%dx),%es:(%rdi)
	...

Disassembly of section .CRT:

0000000000409000 <___crt_xc_start__>:
	...

0000000000409008 <mingw_pcppinit>:
  409008:	60                   	(bad)  
  409009:	11 40 00             	adc    %eax,0x0(%rax)
  40900c:	00 00                	add    %al,(%rax)
	...

0000000000409010 <__xc_z>:
	...

0000000000409018 <___crt_xc_end__>:
	...

0000000000409020 <mingw_pcinit>:
  409020:	10 10                	adc    %dl,(%rax)
  409022:	40 00 00             	add    %al,(%rax)
  409025:	00 00                	add    %al,(%rax)
	...

0000000000409028 <__mingw_pinit>:
  409028:	f0 27                	lock (bad) 
  40902a:	40 00 00             	add    %al,(%rax)
  40902d:	00 00                	add    %al,(%rax)
	...

0000000000409030 <__xi_z>:
	...

0000000000409038 <___crt_xi_end__>:
	...

0000000000409040 <__xl_c>:
  409040:	a0 26 40 00 00 00 00 	movabs 0x7000000000004026,%al
  409047:	00 70 

0000000000409048 <__xl_d>:
  409048:	70 26                	jo     409070 <__xd_z+0x10>
  40904a:	40 00 00             	add    %al,(%rax)
  40904d:	00 00                	add    %al,(%rax)
	...

0000000000409050 <__xl_z>:
	...

0000000000409058 <___crt_xp_end__>:
	...

0000000000409060 <__xd_z>:
	...

Disassembly of section .tls:

000000000040a000 <___tls_start__>:
	...

000000000040a020 <_tls_used>:
  40a020:	00 a0 40 00 00 00    	add    %ah,0x40(%rax)
  40a026:	00 00                	add    %al,(%rax)
  40a028:	60                   	(bad)  
  40a029:	a0 40 00 00 00 00 00 	movabs 0x794c000000000040,%al
  40a030:	4c 79 
  40a032:	40 00 00             	add    %al,(%rax)
  40a035:	00 00                	add    %al,(%rax)
  40a037:	00 40 90             	add    %al,-0x70(%rax)
  40a03a:	40 00 00             	add    %al,(%rax)
	...

000000000040a060 <_tls_end>:
	...
